   1               		.file	"CP2200.c"
   2               	__SREG__ = 0x3f
   3               	__SP_H__ = 0x3e
   4               	__SP_L__ = 0x3d
   5               	__CCP__  = 0x34
   6               	__tmp_reg__ = 0
   7               	__zero_reg__ = 1
  15               	.Ltext0:
  16               	.global	write_CP2200
  18               	write_CP2200:
  19               	.LFB14:
  20               	.LM1:
  21               	.LVL0:
  22               	/* prologue: function */
  23               	/* frame size = 0 */
  24               	.LM2:
  25 0000 439A      		sbi 40-32,3
  26               	.LM3:
  27 0002 9FEF      		ldi r25,lo8(-1)
  28 0004 91B9      		out 33-32,r25
  29               	.LM4:
  30 0006 82B9      		out 34-32,r24
  31               	.LM5:
  32 0008 4398      		cbi 40-32,3
  33               	.LM6:
  34 000a 4498      		cbi 40-32,4
  35               	.LM7:
  36 000c 62B9      		out 34-32,r22
  37               	.LM8:
  38 000e 449A      		sbi 40-32,4
  39               	.LM9:
  40 0010 62B9      		out 34-32,r22
  41               	.LM10:
  42 0012 11B8      		out 33-32,__zero_reg__
  43               	/* epilogue start */
  44               	.LM11:
  45 0014 0895      		ret
  46               	.LFE14:
  48               	.global	CP2200_WriteRXBuffer
  50               	CP2200_WriteRXBuffer:
  51               	.LFB9:
  52               	.LM12:
  53               	.LVL1:
  54 0016 0F93      		push r16
  55 0018 1F93      		push r17
  56               	/* prologue: function */
  57               	/* frame size = 0 */
  58 001a 282F      		mov r18,r24
  59 001c 192F      		mov r17,r25
  60               	.LVL2:
  61 001e 062F      		mov r16,r22
  62               	.LM13:
  63 0020 89E0      		ldi r24,lo8(9)
  64 0022 90E0      		ldi r25,hi8(9)
  65               	.LVL3:
  66 0024 622F      		mov r22,r18
  67               	.LVL4:
  68 0026 0E94 0000 		call write_CP2200
  69               	.LVL5:
  70               	.LM14:
  71 002a 88E0      		ldi r24,lo8(8)
  72 002c 90E0      		ldi r25,hi8(8)
  73 002e 612F      		mov r22,r17
  74 0030 0E94 0000 		call write_CP2200
  75               	.LM15:
  76 0034 82E0      		ldi r24,lo8(2)
  77 0036 90E0      		ldi r25,hi8(2)
  78 0038 602F      		mov r22,r16
  79 003a 0E94 0000 		call write_CP2200
  80               	/* epilogue start */
  81               	.LM16:
  82 003e 1F91      		pop r17
  83               	.LVL6:
  84 0040 0F91      		pop r16
  85               	.LVL7:
  86 0042 0895      		ret
  87               	.LFE9:
  89               	.global	CP2200_WriteTXBuffer
  91               	CP2200_WriteTXBuffer:
  92               	.LFB7:
  93               	.LM17:
  94               	.LVL8:
  95 0044 0F93      		push r16
  96 0046 1F93      		push r17
  97               	/* prologue: function */
  98               	/* frame size = 0 */
  99 0048 282F      		mov r18,r24
 100 004a 192F      		mov r17,r25
 101               	.LVL9:
 102 004c 062F      		mov r16,r22
 103               	.LM18:
 104 004e 89E0      		ldi r24,lo8(9)
 105 0050 90E0      		ldi r25,hi8(9)
 106               	.LVL10:
 107 0052 622F      		mov r22,r18
 108               	.LVL11:
 109 0054 0E94 0000 		call write_CP2200
 110               	.LVL12:
 111               	.LM19:
 112 0058 88E0      		ldi r24,lo8(8)
 113 005a 90E0      		ldi r25,hi8(8)
 114 005c 612F      		mov r22,r17
 115 005e 0E94 0000 		call write_CP2200
 116               	.LM20:
 117 0062 84E0      		ldi r24,lo8(4)
 118 0064 90E0      		ldi r25,hi8(4)
 119 0066 602F      		mov r22,r16
 120 0068 0E94 0000 		call write_CP2200
 121               	/* epilogue start */
 122               	.LM21:
 123 006c 1F91      		pop r17
 124               	.LVL13:
 125 006e 0F91      		pop r16
 126               	.LVL14:
 127 0070 0895      		ret
 128               	.LFE7:
 130               	.global	read_CP2200
 132               	read_CP2200:
 133               	.LFB15:
 134               	.LM22:
 135               	.LVL15:
 136               	/* prologue: function */
 137               	/* frame size = 0 */
 138               	.LM23:
 139 0072 439A      		sbi 40-32,3
 140               	.LM24:
 141 0074 9FEF      		ldi r25,lo8(-1)
 142 0076 91B9      		out 33-32,r25
 143               	.LM25:
 144 0078 82B9      		out 34-32,r24
 145               	.LM26:
 146 007a 4398      		cbi 40-32,3
 147               	.LM27:
 148 007c 11B8      		out 33-32,__zero_reg__
 149               	.LM28:
 150 007e 4598      		cbi 40-32,5
 151               	.LM29:
 152 0080 80B1      		in r24,32-32
 153               	.LVL16:
 154               	.LM30:
 155 0082 80B1      		in r24,32-32
 156               	.LVL17:
 157               	.LM31:
 158 0084 80B1      		in r24,32-32
 159               	.LVL18:
 160               	.LM32:
 161 0086 80B1      		in r24,32-32
 162               	.LVL19:
 163               	.LM33:
 164 0088 80B1      		in r24,32-32
 165               	.LVL20:
 166               	.LM34:
 167 008a 459A      		sbi 40-32,5
 168               	.LVL21:
 169               	/* epilogue start */
 170               	.LM35:
 171 008c 0895      		ret
 172               	.LFE15:
 174               	.global	CP2200_WritePacket
 176               	CP2200_WritePacket:
 177               	.LFB12:
 178               	.LM36:
 179 008e 0F93      		push r16
 180 0090 1F93      		push r17
 181 0092 CF93      		push r28
 182 0094 DF93      		push r29
 183               	/* prologue: function */
 184               	/* frame size = 0 */
 185               	.L10:
 186               	.LM37:
 187 0096 84E5      		ldi r24,lo8(84)
 188 0098 90E0      		ldi r25,hi8(84)
 189 009a 0E94 0000 		call read_CP2200
 190 009e 8823      		tst r24
 191 00a0 01F4      		brne .L10
 192               	.LM38:
 193 00a2 89E5      		ldi r24,lo8(89)
 194 00a4 90E0      		ldi r25,hi8(89)
 195 00a6 60E0      		ldi r22,lo8(0)
 196 00a8 0E94 0000 		call write_CP2200
 197               	.LM39:
 198 00ac 8AE5      		ldi r24,lo8(90)
 199 00ae 90E0      		ldi r25,hi8(90)
 200 00b0 60E0      		ldi r22,lo8(0)
 201 00b2 0E94 0000 		call write_CP2200
 202 00b6 80E0      		ldi r24,lo8(0)
 203 00b8 90E0      		ldi r25,hi8(0)
 204               	.LVL22:
 205               	.L11:
 206               	.LM40:
 207 00ba EC01      		movw r28,r24
 208 00bc 2196      		adiw r28,1
 209               	.LVL23:
 210 00be FE01      		movw r30,r28
 211 00c0 E050      		subi r30,lo8(-(uip_buf-1))
 212 00c2 F040      		sbci r31,hi8(-(uip_buf-1))
 213 00c4 6081      		ld r22,Z
 214 00c6 0E94 0000 		call CP2200_WriteTXBuffer
 215 00ca CE01      		movw r24,r28
 216               	.LM41:
 217 00cc CE30      		cpi r28,14
 218 00ce D105      		cpc r29,__zero_reg__
 219 00d0 01F4      		brne .L11
 220               	.LM42:
 221 00d2 8091 0000 		lds r24,uip_len
 222 00d6 9091 0000 		lds r25,(uip_len)+1
 223 00da C797      		sbiw r24,55
 224 00dc 00F0      		brlo .L23
 225 00de 00C0      		rjmp .L19
 226               	.LVL24:
 227               	.L14:
 228               	.LM43:
 229 00e0 8E01      		movw r16,r28
 230 00e2 0F5F      		subi r16,lo8(-(1))
 231 00e4 1F4F      		sbci r17,hi8(-(1))
 232               	.LVL25:
 233 00e6 F801      		movw r30,r16
 234 00e8 E050      		subi r30,lo8(-(uip_buf-1))
 235 00ea F040      		sbci r31,hi8(-(uip_buf-1))
 236 00ec CE01      		movw r24,r28
 237 00ee 6081      		ld r22,Z
 238 00f0 0E94 0000 		call CP2200_WriteTXBuffer
 239 00f4 E801      		movw r28,r16
 240               	.LVL26:
 241               	.L23:
 242               	.LM44:
 243 00f6 8091 0000 		lds r24,uip_len
 244 00fa 9091 0000 		lds r25,(uip_len)+1
 245 00fe C817      		cp r28,r24
 246 0100 D907      		cpc r29,r25
 247 0102 00F0      		brlo .L14
 248 0104 00C0      		rjmp .L15
 249               	.LVL27:
 250               	.L19:
 251 0106 CE01      		movw r24,r28
 252               	.LVL28:
 253               	.LM45:
 254 0108 2196      		adiw r28,1
 255               	.LVL29:
 256 010a FE01      		movw r30,r28
 257 010c E050      		subi r30,lo8(-(uip_buf-1))
 258 010e F040      		sbci r31,hi8(-(uip_buf-1))
 259 0110 6081      		ld r22,Z
 260 0112 0E94 0000 		call CP2200_WriteTXBuffer
 261               	.LM46:
 262 0116 C633      		cpi r28,54
 263 0118 D105      		cpc r29,__zero_reg__
 264 011a 01F4      		brne .L19
 265 011c 00C0      		rjmp .L24
 266               	.LVL30:
 267               	.L17:
 268               	.LM47:
 269 011e 8E01      		movw r16,r28
 270 0120 0F5F      		subi r16,lo8(-(1))
 271 0122 1F4F      		sbci r17,hi8(-(1))
 272               	.LVL31:
 273 0124 E091 0000 		lds r30,uip_appdata
 274 0128 F091 0000 		lds r31,(uip_appdata)+1
 275 012c E20F      		add r30,r18
 276 012e F31F      		adc r31,r19
 277 0130 CE01      		movw r24,r28
 278 0132 6081      		ld r22,Z
 279 0134 0E94 0000 		call CP2200_WriteTXBuffer
 280               	.LVL32:
 281 0138 E801      		movw r28,r16
 282               	.LVL33:
 283               	.L24:
 284 013a 9E01      		movw r18,r28
 285               	.LVL34:
 286 013c 2653      		subi r18,lo8(-(-54))
 287 013e 3040      		sbci r19,hi8(-(-54))
 288               	.LM48:
 289 0140 8091 0000 		lds r24,uip_len
 290 0144 9091 0000 		lds r25,(uip_len)+1
 291 0148 C697      		sbiw r24,54
 292 014a 2817      		cp r18,r24
 293 014c 3907      		cpc r19,r25
 294 014e 00F0      		brlo .L17
 295               	.L15:
 296               	.LM49:
 297 0150 87E5      		ldi r24,lo8(87)
 298 0152 90E0      		ldi r25,hi8(87)
 299 0154 6D2F      		mov r22,r29
 300               	.LVL35:
 301 0156 0E94 0000 		call write_CP2200
 302               	.LVL36:
 303               	.LM50:
 304 015a 88E5      		ldi r24,lo8(88)
 305 015c 90E0      		ldi r25,hi8(88)
 306 015e 6C2F      		mov r22,r28
 307 0160 0E94 0000 		call write_CP2200
 308               	.LM51:
 309 0164 89E5      		ldi r24,lo8(89)
 310 0166 90E0      		ldi r25,hi8(89)
 311 0168 60E0      		ldi r22,lo8(0)
 312 016a 0E94 0000 		call write_CP2200
 313               	.LM52:
 314 016e 8AE5      		ldi r24,lo8(90)
 315 0170 90E0      		ldi r25,hi8(90)
 316 0172 60E0      		ldi r22,lo8(0)
 317 0174 0E94 0000 		call write_CP2200
 318               	.LM53:
 319 0178 83E5      		ldi r24,lo8(83)
 320 017a 90E0      		ldi r25,hi8(83)
 321 017c 61E0      		ldi r22,lo8(1)
 322 017e 0E94 0000 		call write_CP2200
 323               	/* epilogue start */
 324               	.LM54:
 325 0182 DF91      		pop r29
 326               	.LVL37:
 327 0184 CF91      		pop r28
 328               	.LVL38:
 329 0186 1F91      		pop r17
 330 0188 0F91      		pop r16
 331               	.LVL39:
 332 018a 0895      		ret
 333               	.LFE12:
 335               	.global	network_device_send
 337               	network_device_send:
 338               	.LFB13:
 339               	.LM55:
 340               	/* prologue: function */
 341               	/* frame size = 0 */
 342               	.LM56:
 343 018c 0E94 0000 		call CP2200_WritePacket
 344               	/* epilogue start */
 345               	.LM57:
 346 0190 0895      		ret
 347               	.LFE13:
 349               	.global	CP2200_ReadPacket
 351               	CP2200_ReadPacket:
 352               	.LFB10:
 353               	.LM58:
 354 0192 EF92      		push r14
 355 0194 FF92      		push r15
 356 0196 0F93      		push r16
 357 0198 1F93      		push r17
 358 019a CF93      		push r28
 359 019c DF93      		push r29
 360               	/* prologue: function */
 361               	/* frame size = 0 */
 362               	.LM59:
 363 019e 8FE1      		ldi r24,lo8(31)
 364 01a0 90E0      		ldi r25,hi8(31)
 365 01a2 0E94 0000 		call read_CP2200
 366               	.LM60:
 367 01a6 182F      		mov r17,r24
 368               	.LVL40:
 369 01a8 00E0      		ldi r16,lo8(0)
 370               	.LVL41:
 371               	.LM61:
 372 01aa 80E2      		ldi r24,lo8(32)
 373 01ac 90E0      		ldi r25,hi8(32)
 374 01ae 0E94 0000 		call read_CP2200
 375 01b2 E82E      		mov r14,r24
 376               	.LVL42:
 377 01b4 FF24      		clr r15
 378               	.LVL43:
 379 01b6 E02A      		or r14,r16
 380 01b8 F12A      		or r15,r17
 381               	.LVL44:
 382 01ba C0E0      		ldi r28,lo8(0)
 383 01bc D0E0      		ldi r29,hi8(0)
 384               	.LVL45:
 385 01be 00C0      		rjmp .L28
 386               	.L29:
 387               	.LM62:
 388 01c0 81E0      		ldi r24,lo8(1)
 389 01c2 90E0      		ldi r25,hi8(1)
 390 01c4 0E94 0000 		call read_CP2200
 391 01c8 FE01      		movw r30,r28
 392 01ca E050      		subi r30,lo8(-(uip_buf))
 393 01cc F040      		sbci r31,hi8(-(uip_buf))
 394 01ce 8083      		st Z,r24
 395               	.LM63:
 396 01d0 2196      		adiw r28,1
 397               	.L28:
 398 01d2 CE15      		cp r28,r14
 399 01d4 DF05      		cpc r29,r15
 400 01d6 00F0      		brlo .L29
 401               	.LM64:
 402 01d8 C701      		movw r24,r14
 403               	.LVL46:
 404               	/* epilogue start */
 405 01da DF91      		pop r29
 406 01dc CF91      		pop r28
 407               	.LVL47:
 408 01de 1F91      		pop r17
 409 01e0 0F91      		pop r16
 410 01e2 FF90      		pop r15
 411               	.LVL48:
 412 01e4 EF90      		pop r14
 413 01e6 0895      		ret
 414               	.LFE10:
 416               	.global	CP2200_ReadRXBuffer
 418               	CP2200_ReadRXBuffer:
 419               	.LFB8:
 420               	.LM65:
 421               	.LVL49:
 422 01e8 1F93      		push r17
 423               	/* prologue: function */
 424               	/* frame size = 0 */
 425 01ea 682F      		mov r22,r24
 426 01ec 192F      		mov r17,r25
 427               	.LVL50:
 428               	.LM66:
 429 01ee 89E0      		ldi r24,lo8(9)
 430 01f0 90E0      		ldi r25,hi8(9)
 431               	.LVL51:
 432 01f2 0E94 0000 		call write_CP2200
 433               	.LVL52:
 434               	.LM67:
 435 01f6 88E0      		ldi r24,lo8(8)
 436 01f8 90E0      		ldi r25,hi8(8)
 437 01fa 612F      		mov r22,r17
 438 01fc 0E94 0000 		call write_CP2200
 439               	.LM68:
 440 0200 82E0      		ldi r24,lo8(2)
 441 0202 90E0      		ldi r25,hi8(2)
 442 0204 0E94 0000 		call read_CP2200
 443               	/* epilogue start */
 444               	.LM69:
 445 0208 1F91      		pop r17
 446               	.LVL53:
 447 020a 0895      		ret
 448               	.LFE8:
 450               	.global	CP2200_ReadTXBuffer
 452               	CP2200_ReadTXBuffer:
 453               	.LFB6:
 454               	.LM70:
 455               	.LVL54:
 456 020c 1F93      		push r17
 457               	/* prologue: function */
 458               	/* frame size = 0 */
 459 020e 682F      		mov r22,r24
 460 0210 192F      		mov r17,r25
 461               	.LVL55:
 462               	.LM71:
 463 0212 89E0      		ldi r24,lo8(9)
 464 0214 90E0      		ldi r25,hi8(9)
 465               	.LVL56:
 466 0216 0E94 0000 		call write_CP2200
 467               	.LVL57:
 468               	.LM72:
 469 021a 88E0      		ldi r24,lo8(8)
 470 021c 90E0      		ldi r25,hi8(8)
 471 021e 612F      		mov r22,r17
 472 0220 0E94 0000 		call write_CP2200
 473               	.LM73:
 474 0224 84E0      		ldi r24,lo8(4)
 475 0226 90E0      		ldi r25,hi8(4)
 476 0228 0E94 0000 		call read_CP2200
 477               	/* epilogue start */
 478               	.LM74:
 479 022c 1F91      		pop r17
 480               	.LVL58:
 481 022e 0895      		ret
 482               	.LFE6:
 485               	cpWriteMac:
 486               	.LFB18:
 487               	.LM75:
 488               	.LVL59:
 489 0230 0F93      		push r16
 490 0232 1F93      		push r17
 491               	/* prologue: function */
 492               	/* frame size = 0 */
 493 0234 282F      		mov r18,r24
 494 0236 8B01      		movw r16,r22
 495               	.LM76:
 496 0238 8AE0      		ldi r24,lo8(10)
 497 023a 90E0      		ldi r25,hi8(10)
 498               	.LVL60:
 499 023c 622F      		mov r22,r18
 500               	.LVL61:
 501 023e 0E94 0000 		call write_CP2200
 502               	.LVL62:
 503               	.LM77:
 504 0242 612F      		mov r22,r17
 505 0244 7727      		clr r23
 506 0246 67FD      		sbrc r22,7
 507 0248 7A95      		dec r23
 508 024a 8BE0      		ldi r24,lo8(11)
 509 024c 90E0      		ldi r25,hi8(11)
 510 024e 0E94 0000 		call write_CP2200
 511               	.LM78:
 512 0252 8CE0      		ldi r24,lo8(12)
 513 0254 90E0      		ldi r25,hi8(12)
 514 0256 602F      		mov r22,r16
 515 0258 0E94 0000 		call write_CP2200
 516               	.LM79:
 517 025c 8DE0      		ldi r24,lo8(13)
 518 025e 90E0      		ldi r25,hi8(13)
 519 0260 61E0      		ldi r22,lo8(1)
 520 0262 0E94 0000 		call write_CP2200
 521               	/* epilogue start */
 522               	.LM80:
 523 0266 1F91      		pop r17
 524 0268 0F91      		pop r16
 525               	.LVL63:
 526 026a 0895      		ret
 527               	.LFE18:
 529               	.global	Init_CP2000
 531               	Init_CP2000:
 532               	.LFB17:
 533               	.LM81:
 534 026c 0F93      		push r16
 535 026e 1F93      		push r17
 536 0270 CF93      		push r28
 537 0272 DF93      		push r29
 538               	/* prologue: function */
 539               	/* frame size = 0 */
 540               	.LM82:
 541 0274 83E6      		ldi r24,lo8(99)
 542 0276 90E0      		ldi r25,hi8(99)
 543 0278 0E94 0000 		call read_CP2200
 544               	.LM83:
 545 027c 85E7      		ldi r24,lo8(117)
 546 027e 90E0      		ldi r25,hi8(117)
 547 0280 64E0      		ldi r22,lo8(4)
 548 0282 0E94 0000 		call write_CP2200
 549               	.L38:
 550               	.LM84:
 551 0286 83E6      		ldi r24,lo8(99)
 552 0288 90E0      		ldi r25,hi8(99)
 553 028a 0E94 0000 		call read_CP2200
 554 028e 85FF      		sbrs r24,5
 555 0290 00C0      		rjmp .L38
 556               	.LM85:
 557 0292 89E7      		ldi r24,lo8(121)
 558 0294 90E0      		ldi r25,hi8(121)
 559 0296 6EEF      		ldi r22,lo8(-2)
 560 0298 0E94 0000 		call write_CP2200
 561               	.LM86:
 562 029c 88E7      		ldi r24,lo8(120)
 563 029e 90E0      		ldi r25,hi8(120)
 564 02a0 60E0      		ldi r22,lo8(0)
 565 02a2 0E94 0000 		call write_CP2200
 566               	.LBB38:
 567               	.LBB39:
 568               	.LBB40:
 569               	.LBB41:
 570               	.LM87:
 571 02a6 08E8      		ldi r16,lo8(5000)
 572 02a8 13E1      		ldi r17,hi8(5000)
 573 02aa C801      		movw r24,r16
 574               	.LVL64:
 575               	/* #APP */
 576               	 ;  105 "/usr/lib/gcc/avr/4.3.5/../../../avr/include/util/delay_basic.h" 1
 577 02ac 0197      		1: sbiw r24,1
 578 02ae 01F4      		brne 1b
 579               	 ;  0 "" 2
 580               	/* #NOAPP */
 581               	.LBE41:
 582               	.LBE40:
 583               	.LBE39:
 584               	.LBE38:
 585               	.LM88:
 586 02b0 8FE7      		ldi r24,lo8(127)
 587 02b2 90E0      		ldi r25,hi8(127)
 588               	.LVL65:
 589 02b4 0E94 0000 		call read_CP2200
 590               	.LM89:
 591 02b8 88E7      		ldi r24,lo8(120)
 592 02ba 90E0      		ldi r25,hi8(120)
 593 02bc 60E8      		ldi r22,lo8(-128)
 594 02be 0E94 0000 		call write_CP2200
 595               	.LBB42:
 596               	.LBB43:
 597               	.LBB44:
 598               	.LBB45:
 599               	.LM90:
 600 02c2 C801      		movw r24,r16
 601               	.LVL66:
 602               	/* #APP */
 603               	 ;  105 "/usr/lib/gcc/avr/4.3.5/../../../avr/include/util/delay_basic.h" 1
 604 02c4 0197      		1: sbiw r24,1
 605 02c6 01F4      		brne 1b
 606               	 ;  0 "" 2
 607               	/* #NOAPP */
 608               	.LBE45:
 609               	.LBE44:
 610               	.LBE43:
 611               	.LBE42:
 612               	.LM91:
 613 02c8 88E7      		ldi r24,lo8(120)
 614 02ca 90E0      		ldi r25,hi8(120)
 615               	.LVL67:
 616 02cc 60EE      		ldi r22,lo8(-32)
 617 02ce 0E94 0000 		call write_CP2200
 618 02d2 8EEE      		ldi r24,lo8(750)
 619 02d4 92E0      		ldi r25,hi8(750)
 620               	.LVL68:
 621               	.LBB46:
 622               	.LBB47:
 623               	.LBB48:
 624               	.LBB49:
 625               	.LM92:
 626 02d6 24EF      		ldi r18,lo8(500)
 627 02d8 31E0      		ldi r19,hi8(500)
 628               	.L39:
 629 02da F901      		movw r30,r18
 630               	.LVL69:
 631               	/* #APP */
 632               	 ;  105 "/usr/lib/gcc/avr/4.3.5/../../../avr/include/util/delay_basic.h" 1
 633 02dc 3197      		1: sbiw r30,1
 634 02de 01F4      		brne 1b
 635               	 ;  0 "" 2
 636               	/* #NOAPP */
 637               	.LBE49:
 638               	.LBE48:
 639               	.LM93:
 640 02e0 0197      		sbiw r24,1
 641               	.LM94:
 642 02e2 01F4      		brne .L39
 643 02e4 C8EB      		ldi r28,lo8(3000)
 644 02e6 DBE0      		ldi r29,hi8(3000)
 645               	.LVL70:
 646               	.LBE47:
 647               	.LBE46:
 648               	.LBB50:
 649               	.LBB51:
 650               	.LBB52:
 651               	.LBB53:
 652               	.LM95:
 653 02e8 08E8      		ldi r16,lo8(5000)
 654 02ea 13E1      		ldi r17,hi8(5000)
 655 02ec 00C0      		rjmp .L40
 656               	.LVL71:
 657               	.L42:
 658 02ee C801      		movw r24,r16
 659               	.LVL72:
 660               	/* #APP */
 661               	 ;  105 "/usr/lib/gcc/avr/4.3.5/../../../avr/include/util/delay_basic.h" 1
 662 02f0 0197      		1: sbiw r24,1
 663 02f2 01F4      		brne 1b
 664               	 ;  0 "" 2
 665               	/* #NOAPP */
 666               	.LBE53:
 667               	.LBE52:
 668               	.LBE51:
 669               	.LBE50:
 670               	.LM96:
 671 02f4 2197      		sbiw r28,1
 672               	.LVL73:
 673               	.L40:
 674               	.LM97:
 675 02f6 8FE7      		ldi r24,lo8(127)
 676 02f8 90E0      		ldi r25,hi8(127)
 677               	.LVL74:
 678 02fa 0E94 0000 		call read_CP2200
 679               	.LVL75:
 680 02fe 80FD      		sbrc r24,0
 681 0300 00C0      		rjmp .L41
 682 0302 2097      		sbiw r28,0
 683 0304 01F4      		brne .L42
 684 0306 00C0      		rjmp .L43
 685               	.L41:
 686               	.LM98:
 687 0308 CD2B      		or r28,r29
 688 030a 01F4      		brne .L53
 689               	.L43:
 690               	.LM99:
 691 030c 80E0      		ldi r24,lo8(__c.1931)
 692 030e 90E0      		ldi r25,hi8(__c.1931)
 693 0310 0E94 0000 		call uart_puts_P
 694               	.L53:
 695 0314 C8EB      		ldi r28,lo8(3000)
 696 0316 DBE0      		ldi r29,hi8(3000)
 697               	.LVL76:
 698               	.LBB54:
 699               	.LBB55:
 700               	.LBB56:
 701               	.LBB57:
 702               	.LM100:
 703 0318 08E8      		ldi r16,lo8(5000)
 704 031a 13E1      		ldi r17,hi8(5000)
 705 031c 00C0      		rjmp .L52
 706               	.L46:
 707 031e C801      		movw r24,r16
 708               	.LVL77:
 709               	/* #APP */
 710               	 ;  105 "/usr/lib/gcc/avr/4.3.5/../../../avr/include/util/delay_basic.h" 1
 711 0320 0197      		1: sbiw r24,1
 712 0322 01F4      		brne 1b
 713               	 ;  0 "" 2
 714               	/* #NOAPP */
 715               	.LBE57:
 716               	.LBE56:
 717               	.LBE55:
 718               	.LBE54:
 719               	.LM101:
 720 0324 2197      		sbiw r28,1
 721               	.L52:
 722               	.LM102:
 723 0326 88E7      		ldi r24,lo8(120)
 724 0328 90E0      		ldi r25,hi8(120)
 725               	.LVL78:
 726 032a 0E94 0000 		call read_CP2200
 727 032e 80FD      		sbrc r24,0
 728 0330 00C0      		rjmp .L45
 729 0332 2097      		sbiw r28,0
 730 0334 01F4      		brne .L46
 731 0336 00C0      		rjmp .L47
 732               	.L45:
 733               	.LM103:
 734 0338 CD2B      		or r28,r29
 735 033a 01F4      		brne .L48
 736               	.L47:
 737               	.LM104:
 738 033c 80E0      		ldi r24,lo8(__c.1936)
 739 033e 90E0      		ldi r25,hi8(__c.1936)
 740 0340 0E94 0000 		call uart_puts_P
 741               	.L48:
 742               	.LM105:
 743 0344 81E0      		ldi r24,lo8(1)
 744 0346 63EB      		ldi r22,lo8(16563)
 745 0348 70E4      		ldi r23,hi8(16563)
 746 034a 0E94 0000 		call cpWriteMac
 747               	.LM106:
 748 034e 82E0      		ldi r24,lo8(2)
 749 0350 65E1      		ldi r22,lo8(21)
 750 0352 70E0      		ldi r23,hi8(21)
 751 0354 0E94 0000 		call cpWriteMac
 752               	.LM107:
 753 0358 83E0      		ldi r24,lo8(3)
 754 035a 62E1      		ldi r22,lo8(3090)
 755 035c 7CE0      		ldi r23,hi8(3090)
 756 035e 0E94 0000 		call cpWriteMac
 757               	.LM108:
 758 0362 85E0      		ldi r24,lo8(5)
 759 0364 6EEE      		ldi r22,lo8(1518)
 760 0366 75E0      		ldi r23,hi8(1518)
 761 0368 0E94 0000 		call cpWriteMac
 762               	.LM109:
 763 036c 88E6      		ldi r24,lo8(104)
 764 036e 90E0      		ldi r25,hi8(104)
 765 0370 6AEF      		ldi r22,lo8(-6)
 766 0372 0E94 0000 		call write_CP2200
 767               	.LM110:
 768 0376 89E6      		ldi r24,lo8(105)
 769 0378 90E0      		ldi r25,hi8(105)
 770 037a 6FE1      		ldi r22,lo8(31)
 771 037c 0E94 0000 		call write_CP2200
 772               	.LM111:
 773 0380 85E0      		ldi r24,lo8(5)
 774 0382 90E0      		ldi r25,hi8(5)
 775 0384 0E94 0000 		call read_CP2200
 776 0388 082F      		mov r16,r24
 777               	.LVL79:
 778 038a 10E0      		ldi r17,lo8(0)
 779               	.LVL80:
 780               	.LM112:
 781 038c 85E0      		ldi r24,lo8(5)
 782 038e 90E0      		ldi r25,hi8(5)
 783 0390 0E94 0000 		call read_CP2200
 784               	.LM113:
 785 0394 782F      		mov r23,r24
 786 0396 60E0      		ldi r22,lo8(0)
 787 0398 602B      		or r22,r16
 788 039a 712B      		or r23,r17
 789 039c 82E1      		ldi r24,lo8(18)
 790 039e 0E94 0000 		call cpWriteMac
 791               	.LM114:
 792 03a2 85E0      		ldi r24,lo8(5)
 793 03a4 90E0      		ldi r25,hi8(5)
 794 03a6 0E94 0000 		call read_CP2200
 795 03aa 082F      		mov r16,r24
 796               	.LVL81:
 797 03ac 10E0      		ldi r17,lo8(0)
 798               	.LVL82:
 799               	.LM115:
 800 03ae 85E0      		ldi r24,lo8(5)
 801 03b0 90E0      		ldi r25,hi8(5)
 802 03b2 0E94 0000 		call read_CP2200
 803               	.LM116:
 804 03b6 782F      		mov r23,r24
 805 03b8 60E0      		ldi r22,lo8(0)
 806 03ba 602B      		or r22,r16
 807 03bc 712B      		or r23,r17
 808 03be 81E1      		ldi r24,lo8(17)
 809 03c0 0E94 0000 		call cpWriteMac
 810               	.LM117:
 811 03c4 85E0      		ldi r24,lo8(5)
 812 03c6 90E0      		ldi r25,hi8(5)
 813 03c8 0E94 0000 		call read_CP2200
 814 03cc 082F      		mov r16,r24
 815               	.LVL83:
 816 03ce 10E0      		ldi r17,lo8(0)
 817               	.LVL84:
 818               	.LM118:
 819 03d0 85E0      		ldi r24,lo8(5)
 820 03d2 90E0      		ldi r25,hi8(5)
 821 03d4 0E94 0000 		call read_CP2200
 822               	.LM119:
 823 03d8 782F      		mov r23,r24
 824 03da 60E0      		ldi r22,lo8(0)
 825 03dc 602B      		or r22,r16
 826 03de 712B      		or r23,r17
 827 03e0 80E1      		ldi r24,lo8(16)
 828 03e2 0E94 0000 		call cpWriteMac
 829               	.LM120:
 830 03e6 80E7      		ldi r24,lo8(112)
 831 03e8 90E0      		ldi r25,hi8(112)
 832 03ea 6CE0      		ldi r22,lo8(12)
 833 03ec 0E94 0000 		call write_CP2200
 834               	.LM121:
 835 03f0 80E0      		ldi r24,lo8(0)
 836 03f2 61E0      		ldi r22,lo8(1)
 837 03f4 70E0      		ldi r23,hi8(1)
 838 03f6 0E94 0000 		call cpWriteMac
 839               	.LM122:
 840 03fa 84E6      		ldi r24,lo8(100)
 841 03fc 90E0      		ldi r25,hi8(100)
 842 03fe 63E0      		ldi r22,lo8(3)
 843 0400 0E94 0000 		call write_CP2200
 844               	.LM123:
 845 0404 8DE7      		ldi r24,lo8(125)
 846 0406 90E0      		ldi r25,hi8(125)
 847 0408 60E0      		ldi r22,lo8(0)
 848 040a 0E94 0000 		call write_CP2200
 849               	.LM124:
 850 040e 83E6      		ldi r24,lo8(99)
 851 0410 90E0      		ldi r25,hi8(99)
 852 0412 0E94 0000 		call read_CP2200
 853               	.LM125:
 854 0416 8FE7      		ldi r24,lo8(127)
 855 0418 90E0      		ldi r25,hi8(127)
 856 041a 0E94 0000 		call read_CP2200
 857               	/* epilogue start */
 858               	.LM126:
 859 041e DF91      		pop r29
 860 0420 CF91      		pop r28
 861               	.LVL85:
 862 0422 1F91      		pop r17
 863               	.LVL86:
 864 0424 0F91      		pop r16
 865               	.LVL87:
 866 0426 0895      		ret
 867               	.LFE17:
 869               	.global	network_device_read
 871               	network_device_read:
 872               	.LFB11:
 873               	.LM127:
 874 0428 CF93      		push r28
 875 042a DF93      		push r29
 876               	/* prologue: function */
 877               	/* frame size = 0 */
 878               	.LM128:
 879 042c 83E6      		ldi r24,lo8(99)
 880 042e 90E0      		ldi r25,hi8(99)
 881 0430 0E94 0000 		call read_CP2200
 882 0434 8093 0000 		sts CP2200_status,r24
 883               	.LM129:
 884 0438 81FF      		sbrs r24,1
 885 043a 00C0      		rjmp .L55
 886               	.LM130:
 887 043c 80E0      		ldi r24,lo8(__c.1798)
 888 043e 90E0      		ldi r25,hi8(__c.1798)
 889 0440 0E94 0000 		call uart_puts_P
 890               	.LM131:
 891 0444 81E1      		ldi r24,lo8(17)
 892 0446 90E0      		ldi r25,hi8(17)
 893 0448 61E0      		ldi r22,lo8(1)
 894 044a 0E94 0000 		call write_CP2200
 895               	.LM132:
 896 044e 81E1      		ldi r24,lo8(17)
 897 0450 90E0      		ldi r25,hi8(17)
 898 0452 60E0      		ldi r22,lo8(0)
 899 0454 0E94 0000 		call write_CP2200
 900               	.L55:
 901               	.LM133:
 902 0458 1092 0000 		sts CP2200_status,__zero_reg__
 903               	.LM134:
 904 045c 8DE1      		ldi r24,lo8(29)
 905 045e 90E0      		ldi r25,hi8(29)
 906 0460 0E94 0000 		call read_CP2200
 907 0464 87FF      		sbrs r24,7
 908 0466 00C0      		rjmp .L56
 909 0468 8EE1      		ldi r24,lo8(30)
 910 046a 90E0      		ldi r25,hi8(30)
 911 046c 0E94 0000 		call read_CP2200
 912 0470 87FF      		sbrs r24,7
 913 0472 00C0      		rjmp .L56
 914               	.LM135:
 915 0474 289A      		sbi 37-32,0
 916               	.LM136:
 917 0476 87E1      		ldi r24,lo8(23)
 918 0478 90E0      		ldi r25,hi8(23)
 919 047a 0E94 0000 		call read_CP2200
 920               	.LM137:
 921 047e 88E1      		ldi r24,lo8(24)
 922 0480 90E0      		ldi r25,hi8(24)
 923 0482 0E94 0000 		call read_CP2200
 924               	.LM138:
 925 0486 0E94 0000 		call CP2200_ReadPacket
 926 048a EC01      		movw r28,r24
 927               	.LVL88:
 928               	.LM139:
 929 048c 81E1      		ldi r24,lo8(17)
 930 048e 90E0      		ldi r25,hi8(17)
 931 0490 66E0      		ldi r22,lo8(6)
 932 0492 0E94 0000 		call write_CP2200
 933 0496 00C0      		rjmp .L57
 934               	.LVL89:
 935               	.L56:
 936 0498 C0E0      		ldi r28,lo8(0)
 937 049a D0E0      		ldi r29,hi8(0)
 938               	.LVL90:
 939               	.L57:
 940               	.LM140:
 941 049c CE01      		movw r24,r28
 942               	.LVL91:
 943               	/* epilogue start */
 944 049e DF91      		pop r29
 945 04a0 CF91      		pop r28
 946 04a2 0895      		ret
 947               	.LFE11:
 949               	.global	network_device_init
 951               	network_device_init:
 952               	.LFB16:
 953               	.LM141:
 954 04a4 EF92      		push r14
 955 04a6 FF92      		push r15
 956 04a8 0F93      		push r16
 957 04aa 1F93      		push r17
 958 04ac DF93      		push r29
 959 04ae CF93      		push r28
 960 04b0 CDB7      		in r28,__SP_L__
 961 04b2 DEB7      		in r29,__SP_H__
 962 04b4 6097      		sbiw r28,16
 963 04b6 0FB6      		in __tmp_reg__,__SREG__
 964 04b8 F894      		cli
 965 04ba DEBF      		out __SP_H__,r29
 966 04bc 0FBE      		out __SREG__,__tmp_reg__
 967 04be CDBF      		out __SP_L__,r28
 968               	/* prologue: function */
 969               	/* frame size = 16 */
 970               	.LM142:
 971 04c0 0E94 0000 		call Init_CP2000
 972               	.LM143:
 973 04c4 88E6      		ldi r24,lo8(104)
 974 04c6 90E0      		ldi r25,hi8(104)
 975 04c8 6AEF      		ldi r22,lo8(-6)
 976 04ca 0E94 0000 		call write_CP2200
 977               	.LM144:
 978 04ce 89E6      		ldi r24,lo8(105)
 979 04d0 90E0      		ldi r25,hi8(105)
 980 04d2 6FE1      		ldi r22,lo8(31)
 981 04d4 0E94 0000 		call write_CP2200
 982               	.LM145:
 983 04d8 80E0      		ldi r24,lo8(__c.1896)
 984 04da 90E0      		ldi r25,hi8(__c.1896)
 985 04dc 0E94 0000 		call uart_puts_P
 986 04e0 8E01      		movw r16,r28
 987 04e2 0F5F      		subi r16,lo8(-(1))
 988 04e4 1F4F      		sbci r17,hi8(-(1))
 989               	.LM146:
 990 04e6 97E0      		ldi r25,lo8(7)
 991 04e8 E92E      		mov r14,r25
 992 04ea F12C      		mov r15,__zero_reg__
 993 04ec EC0E      		add r14,r28
 994 04ee FD1E      		adc r15,r29
 995               	.L60:
 996               	.LM147:
 997 04f0 85E0      		ldi r24,lo8(5)
 998 04f2 90E0      		ldi r25,hi8(5)
 999 04f4 0E94 0000 		call read_CP2200
 1000 04f8 682F      		mov r22,r24
 1001 04fa F801      		movw r30,r16
 1002 04fc 8193      		st Z+,r24
 1003 04fe 8F01      		movw r16,r30
 1004               	.LM148:
 1005 0500 C701      		movw r24,r14
 1006 0502 70E0      		ldi r23,lo8(0)
 1007 0504 42E0      		ldi r20,lo8(2)
 1008 0506 0E94 0000 		call itohex
 1009               	.LM149:
 1010 050a C701      		movw r24,r14
 1011 050c 0E94 0000 		call uart_puts
 1012               	.LM150:
 1013 0510 0E15      		cp r16,r14
 1014 0512 1F05      		cpc r17,r15
 1015 0514 01F4      		brne .L60
 1016               	.LM151:
 1017 0516 80E0      		ldi r24,lo8(__c.1901)
 1018 0518 90E0      		ldi r25,hi8(__c.1901)
 1019 051a 0E94 0000 		call uart_puts_P
 1020               	.LM152:
 1021 051e 8981      		ldd r24,Y+1
 1022 0520 8093 0000 		sts uip_ethaddr,r24
 1023 0524 8A81      		ldd r24,Y+2
 1024 0526 8093 0000 		sts uip_ethaddr+1,r24
 1025 052a 8B81      		ldd r24,Y+3
 1026 052c 8093 0000 		sts uip_ethaddr+2,r24
 1027 0530 8C81      		ldd r24,Y+4
 1028 0532 8093 0000 		sts uip_ethaddr+3,r24
 1029 0536 8D81      		ldd r24,Y+5
 1030 0538 8093 0000 		sts uip_ethaddr+4,r24
 1031 053c 8E81      		ldd r24,Y+6
 1032 053e 8093 0000 		sts uip_ethaddr+5,r24
 1033               	.LM153:
 1034 0542 8FEF      		ldi r24,lo8(-1)
 1035 0544 9FEF      		ldi r25,hi8(-1)
 1036 0546 9093 0000 		sts (uip_netmask)+1,r25
 1037 054a 8093 0000 		sts uip_netmask,r24
 1038 054e 8FEF      		ldi r24,lo8(255)
 1039 0550 90E0      		ldi r25,hi8(255)
 1040 0552 9093 0000 		sts (uip_netmask+2)+1,r25
 1041 0556 8093 0000 		sts uip_netmask+2,r24
 1042               	.LM154:
 1043 055a 20EC      		ldi r18,lo8(-22336)
 1044 055c 38EA      		ldi r19,hi8(-22336)
 1045 055e 3093 0000 		sts (uip_hostaddr)+1,r19
 1046 0562 2093 0000 		sts uip_hostaddr,r18
 1047 0566 8AE2      		ldi r24,lo8(10794)
 1048 0568 9AE2      		ldi r25,hi8(10794)
 1049 056a 9093 0000 		sts (uip_hostaddr+2)+1,r25
 1050 056e 8093 0000 		sts uip_hostaddr+2,r24
 1051               	.LM155:
 1052 0572 3093 0000 		sts (uip_draddr)+1,r19
 1053 0576 2093 0000 		sts uip_draddr,r18
 1054 057a 8AE2      		ldi r24,lo8(554)
 1055 057c 92E0      		ldi r25,hi8(554)
 1056 057e 9093 0000 		sts (uip_draddr+2)+1,r25
 1057 0582 8093 0000 		sts uip_draddr+2,r24
 1058               	/* epilogue start */
 1059               	.LM156:
 1060 0586 6096      		adiw r28,16
 1061 0588 0FB6      		in __tmp_reg__,__SREG__
 1062 058a F894      		cli
 1063 058c DEBF      		out __SP_H__,r29
 1064 058e 0FBE      		out __SREG__,__tmp_reg__
 1065 0590 CDBF      		out __SP_L__,r28
 1066 0592 CF91      		pop r28
 1067 0594 DF91      		pop r29
 1068 0596 1F91      		pop r17
 1069 0598 0F91      		pop r16
 1070 059a FF90      		pop r15
 1071 059c EF90      		pop r14
 1072 059e 0895      		ret
 1073               	.LFE16:
 1075               		.section	.progmem.data,"a",@progbits
 1078               	__c.1936:
 1079 0000 7469 6D65 		.string	"timeout\r\n"
 1079      6F75 740D 
 1079      0A00 
 1082               	__c.1931:
 1083 000a 7469 6D65 		.string	"timeout\r\n"
 1083      6F75 740D 
 1083      0A00 
 1086               	__c.1901:
 1087 0014 0A0D 00   		.string	"\n\r"
 1090               	__c.1896:
 1091 0017 0A0D 4D41 		.string	"\n\rMAC:"
 1091      433A 00
 1092               		.lcomm CP2200_status,1
 1095               	__c.1798:
 1096 001e 4350 3232 		.string	"CP2200 buffer full\r\n"
 1096      3030 2062 
 1096      7566 6665 
 1096      7220 6675 
 1096      6C6C 0D0A 
 1217               	.Letext0:
DEFINED SYMBOLS
                            *ABS*:0000000000000000 CP2200.c
     /tmp/ccsj76am.s:2      *ABS*:000000000000003f __SREG__
     /tmp/ccsj76am.s:3      *ABS*:000000000000003e __SP_H__
     /tmp/ccsj76am.s:4      *ABS*:000000000000003d __SP_L__
     /tmp/ccsj76am.s:5      *ABS*:0000000000000034 __CCP__
     /tmp/ccsj76am.s:6      *ABS*:0000000000000000 __tmp_reg__
     /tmp/ccsj76am.s:7      *ABS*:0000000000000001 __zero_reg__
     /tmp/ccsj76am.s:18     .text:0000000000000000 write_CP2200
     /tmp/ccsj76am.s:50     .text:0000000000000016 CP2200_WriteRXBuffer
     /tmp/ccsj76am.s:91     .text:0000000000000044 CP2200_WriteTXBuffer
     /tmp/ccsj76am.s:132    .text:0000000000000072 read_CP2200
     /tmp/ccsj76am.s:176    .text:000000000000008e CP2200_WritePacket
     /tmp/ccsj76am.s:337    .text:000000000000018c network_device_send
     /tmp/ccsj76am.s:351    .text:0000000000000192 CP2200_ReadPacket
     /tmp/ccsj76am.s:418    .text:00000000000001e8 CP2200_ReadRXBuffer
     /tmp/ccsj76am.s:452    .text:000000000000020c CP2200_ReadTXBuffer
     /tmp/ccsj76am.s:485    .text:0000000000000230 cpWriteMac
     /tmp/ccsj76am.s:531    .text:000000000000026c Init_CP2000
     /tmp/ccsj76am.s:1082   .progmem.data:000000000000000a __c.1931
     /tmp/ccsj76am.s:1078   .progmem.data:0000000000000000 __c.1936
     /tmp/ccsj76am.s:871    .text:0000000000000428 network_device_read
                             .bss:0000000000000000 CP2200_status
     /tmp/ccsj76am.s:1095   .progmem.data:000000000000001e __c.1798
     /tmp/ccsj76am.s:951    .text:00000000000004a4 network_device_init
     /tmp/ccsj76am.s:1090   .progmem.data:0000000000000017 __c.1896
     /tmp/ccsj76am.s:1086   .progmem.data:0000000000000014 __c.1901

UNDEFINED SYMBOLS
uip_buf
uip_len
uip_appdata
uart_puts_P
itohex
uart_puts
uip_ethaddr
uip_netmask
uip_hostaddr
uip_draddr
__do_clear_bss
