   1               		.file	"uip.c"
   2               	__SREG__ = 0x3f
   3               	__SP_H__ = 0x3e
   4               	__SP_L__ = 0x3d
   5               	__CCP__  = 0x34
   6               	__tmp_reg__ = 0
   7               	__zero_reg__ = 1
  15               	.Ltext0:
  16               	.global	uip_setipid
  18               	uip_setipid:
  19               	.LFB2:
  20               	.LM1:
  21               	.LVL0:
  22               	/* prologue: function */
  23               	/* frame size = 0 */
  24               	.LM2:
  25 0000 9093 0000 		sts (ipid)+1,r25
  26 0004 8093 0000 		sts ipid,r24
  27               	/* epilogue start */
  28 0008 0895      		ret
  29               	.LFE2:
  31               	.global	uip_add32
  33               	uip_add32:
  34               	.LFB4:
  35               	.LM3:
  36               	.LVL1:
  37               	/* prologue: function */
  38               	/* frame size = 0 */
  39 000a FC01      		movw r30,r24
  40               	.LM4:
  41 000c 5381      		ldd r21,Z+3
  42 000e 560F      		add r21,r22
  43 0010 5093 0000 		sts uip_acc32+3,r21
  44               	.LM5:
  45 0014 272F      		mov r18,r23
  46 0016 3327      		clr r19
  47               	.LVL2:
  48 0018 4281      		ldd r20,Z+2
  49 001a 420F      		add r20,r18
  50 001c 4093 0000 		sts uip_acc32+2,r20
  51               	.LM6:
  52 0020 A181      		ldd r26,Z+1
  53 0022 A093 0000 		sts uip_acc32+1,r26
  54               	.LM7:
  55 0026 E081      		ld r30,Z
  56               	.LVL3:
  57 0028 E093 0000 		sts uip_acc32,r30
  58               	.LM8:
  59 002c 842F      		mov r24,r20
  60 002e 90E0      		ldi r25,lo8(0)
  61 0030 8217      		cp r24,r18
  62 0032 9307      		cpc r25,r19
  63 0034 00F4      		brsh .L4
  64               	.LM9:
  65 0036 8A2F      		mov r24,r26
  66 0038 8F5F      		subi r24,lo8(-(1))
  67 003a 8093 0000 		sts uip_acc32+1,r24
  68               	.LM10:
  69 003e 8823      		tst r24
  70 0040 01F4      		brne .L4
  71               	.LM11:
  72 0042 EF5F      		subi r30,lo8(-(1))
  73 0044 E093 0000 		sts uip_acc32,r30
  74               	.L4:
  75               	.LM12:
  76 0048 852F      		mov r24,r21
  77 004a 90E0      		ldi r25,lo8(0)
  78 004c 7070      		andi r23,hi8(255)
  79               	.LVL4:
  80 004e 8617      		cp r24,r22
  81 0050 9707      		cpc r25,r23
  82 0052 00F4      		brsh .L6
  83               	.LM13:
  84 0054 842F      		mov r24,r20
  85 0056 8F5F      		subi r24,lo8(-(1))
  86 0058 8093 0000 		sts uip_acc32+2,r24
  87               	.LM14:
  88 005c 8823      		tst r24
  89 005e 01F4      		brne .L6
  90               	.LM15:
  91 0060 8091 0000 		lds r24,uip_acc32+1
  92 0064 8F5F      		subi r24,lo8(-(1))
  93 0066 8093 0000 		sts uip_acc32+1,r24
  94               	.LM16:
  95 006a 8823      		tst r24
  96 006c 01F4      		brne .L6
  97               	.LM17:
  98 006e 8091 0000 		lds r24,uip_acc32
  99 0072 8F5F      		subi r24,lo8(-(1))
 100 0074 8093 0000 		sts uip_acc32,r24
 101               	.L6:
 102 0078 0895      		ret
 103               	.LFE4:
 106               	chksum:
 107               	.LFB5:
 108               	.LM18:
 109               	.LVL5:
 110               	/* prologue: function */
 111               	/* frame size = 0 */
 112 007a 9C01      		movw r18,r24
 113               	.LM19:
 114 007c 4150      		subi r20,lo8(-(-1))
 115 007e 5040      		sbci r21,hi8(-(-1))
 116               	.LVL6:
 117 0080 460F      		add r20,r22
 118 0082 571F      		adc r21,r23
 119 0084 FB01      		movw r30,r22
 120               	.LVL7:
 121 0086 00C0      		rjmp .L8
 122               	.LVL8:
 123               	.L10:
 124               	.LM20:
 125 0088 7081      		ld r23,Z
 126 008a 60E0      		ldi r22,lo8(0)
 127               	.LVL9:
 128 008c 8181      		ldd r24,Z+1
 129 008e DB01      		movw r26,r22
 130               	.LVL10:
 131 0090 A80F      		add r26,r24
 132 0092 B11D      		adc r27,__zero_reg__
 133               	.LM21:
 134 0094 2A0F      		add r18,r26
 135 0096 3B1F      		adc r19,r27
 136               	.LVL11:
 137               	.LM22:
 138 0098 2A17      		cp r18,r26
 139 009a 3B07      		cpc r19,r27
 140 009c 00F4      		brsh .L9
 141               	.LM23:
 142 009e 2F5F      		subi r18,lo8(-(1))
 143 00a0 3F4F      		sbci r19,hi8(-(1))
 144               	.L9:
 145               	.LM24:
 146 00a2 3296      		adiw r30,2
 147               	.LVL12:
 148               	.L8:
 149               	.LM25:
 150 00a4 E417      		cp r30,r20
 151 00a6 F507      		cpc r31,r21
 152 00a8 00F0      		brlo .L10
 153               	.LM26:
 154 00aa E417      		cp r30,r20
 155 00ac F507      		cpc r31,r21
 156 00ae 01F4      		brne .L11
 157               	.LM27:
 158 00b0 9081      		ld r25,Z
 159               	.LVL13:
 160 00b2 80E0      		ldi r24,lo8(0)
 161               	.LVL14:
 162               	.LM28:
 163 00b4 280F      		add r18,r24
 164 00b6 391F      		adc r19,r25
 165               	.LM29:
 166 00b8 2817      		cp r18,r24
 167 00ba 3907      		cpc r19,r25
 168 00bc 00F4      		brsh .L11
 169               	.LM30:
 170 00be 2F5F      		subi r18,lo8(-(1))
 171 00c0 3F4F      		sbci r19,hi8(-(1))
 172               	.LVL15:
 173               	.L11:
 174               	.LM31:
 175 00c2 C901      		movw r24,r18
 176               	.LVL16:
 177               	/* epilogue start */
 178 00c4 0895      		ret
 179               	.LFE5:
 181               	.global	uip_chksum
 183               	uip_chksum:
 184               	.LFB6:
 185               	.LM32:
 186               	.LVL17:
 187               	/* prologue: function */
 188               	/* frame size = 0 */
 189 00c6 9C01      		movw r18,r24
 190 00c8 AB01      		movw r20,r22
 191               	.LM33:
 192 00ca 80E0      		ldi r24,lo8(0)
 193 00cc 90E0      		ldi r25,hi8(0)
 194               	.LVL18:
 195 00ce B901      		movw r22,r18
 196               	.LVL19:
 197 00d0 0E94 0000 		call chksum
 198               	.LVL20:
 199 00d4 282F      		mov r18,r24
 200               	.LM34:
 201 00d6 892F      		mov r24,r25
 202 00d8 922F      		mov r25,r18
 203               	/* epilogue start */
 204 00da 0895      		ret
 205               	.LFE6:
 207               	.global	uip_ipchksum
 209               	uip_ipchksum:
 210               	.LFB7:
 211               	.LM35:
 212               	/* prologue: function */
 213               	/* frame size = 0 */
 214               	.LM36:
 215 00dc 80E0      		ldi r24,lo8(0)
 216 00de 90E0      		ldi r25,hi8(0)
 217 00e0 60E0      		ldi r22,lo8(uip_buf+14)
 218 00e2 70E0      		ldi r23,hi8(uip_buf+14)
 219 00e4 44E1      		ldi r20,lo8(20)
 220 00e6 50E0      		ldi r21,hi8(20)
 221 00e8 0E94 0000 		call chksum
 222               	.LM37:
 223 00ec 0097      		sbiw r24,0
 224               	.LVL21:
 225 00ee 01F4      		brne .L16
 226 00f0 2FEF      		ldi r18,lo8(-1)
 227 00f2 3FEF      		ldi r19,hi8(-1)
 228 00f4 00C0      		rjmp .L17
 229               	.L16:
 230               	.LBB12:
 231               	.LBB13:
 232               	.LM38:
 233 00f6 382F      		mov r19,r24
 234 00f8 292F      		mov r18,r25
 235               	.LVL22:
 236               	.L17:
 237               	.LBE13:
 238               	.LBE12:
 239               	.LM39:
 240 00fa C901      		movw r24,r18
 241               	.LVL23:
 242               	/* epilogue start */
 243 00fc 0895      		ret
 244               	.LFE7:
 247               	upper_layer_chksum:
 248               	.LFB8:
 249               	.LM40:
 250               	.LVL24:
 251 00fe 0F93      		push r16
 252 0100 1F93      		push r17
 253               	/* prologue: function */
 254               	/* frame size = 0 */
 255               	.LM41:
 256 0102 0091 0000 		lds r16,uip_buf+17
 257 0106 10E0      		ldi r17,lo8(0)
 258               	.LVL25:
 259 0108 0451      		subi r16,lo8(-(-20))
 260 010a 1040      		sbci r17,hi8(-(-20))
 261               	.LVL26:
 262 010c 3091 0000 		lds r19,uip_buf+16
 263 0110 20E0      		ldi r18,lo8(0)
 264 0112 020F      		add r16,r18
 265 0114 131F      		adc r17,r19
 266               	.LM42:
 267 0116 9801      		movw r18,r16
 268 0118 280F      		add r18,r24
 269 011a 311D      		adc r19,__zero_reg__
 270 011c C901      		movw r24,r18
 271               	.LVL27:
 272 011e 60E0      		ldi r22,lo8(uip_buf+26)
 273 0120 70E0      		ldi r23,hi8(uip_buf+26)
 274 0122 48E0      		ldi r20,lo8(8)
 275 0124 50E0      		ldi r21,hi8(8)
 276 0126 0E94 0000 		call chksum
 277               	.LM43:
 278 012a 60E0      		ldi r22,lo8(uip_buf+34)
 279 012c 70E0      		ldi r23,hi8(uip_buf+34)
 280 012e A801      		movw r20,r16
 281 0130 0E94 0000 		call chksum
 282               	.LM44:
 283 0134 0097      		sbiw r24,0
 284               	.LVL28:
 285 0136 01F4      		brne .L20
 286 0138 2FEF      		ldi r18,lo8(-1)
 287 013a 3FEF      		ldi r19,hi8(-1)
 288 013c 00C0      		rjmp .L21
 289               	.L20:
 290               	.LBB14:
 291               	.LBB15:
 292               	.LM45:
 293 013e 382F      		mov r19,r24
 294 0140 292F      		mov r18,r25
 295               	.LVL29:
 296               	.L21:
 297               	.LBE15:
 298               	.LBE14:
 299               	.LM46:
 300 0142 C901      		movw r24,r18
 301               	.LVL30:
 302               	/* epilogue start */
 303 0144 1F91      		pop r17
 304               	.LVL31:
 305 0146 0F91      		pop r16
 306               	.LVL32:
 307 0148 0895      		ret
 308               	.LFE8:
 310               	.global	uip_tcpchksum
 312               	uip_tcpchksum:
 313               	.LFB9:
 314               	.LM47:
 315               	/* prologue: function */
 316               	/* frame size = 0 */
 317               	.LM48:
 318 014a 86E0      		ldi r24,lo8(6)
 319 014c 0E94 0000 		call upper_layer_chksum
 320               	/* epilogue start */
 321               	.LM49:
 322 0150 0895      		ret
 323               	.LFE9:
 325               	.global	uip_udpchksum
 327               	uip_udpchksum:
 328               	.LFB10:
 329               	.LM50:
 330               	/* prologue: function */
 331               	/* frame size = 0 */
 332               	.LM51:
 333 0152 81E1      		ldi r24,lo8(17)
 334 0154 0E94 0000 		call upper_layer_chksum
 335               	/* epilogue start */
 336               	.LM52:
 337 0158 0895      		ret
 338               	.LFE10:
 340               	.global	uip_init
 342               	uip_init:
 343               	.LFB11:
 344               	.LM53:
 345               	/* prologue: function */
 346               	/* frame size = 0 */
 347               	.LM54:
 348 015a 80E0      		ldi r24,lo8(0)
 349 015c 00C0      		rjmp .L28
 350               	.L29:
 351               	.LM55:
 352 015e E82F      		mov r30,r24
 353 0160 F0E0      		ldi r31,lo8(0)
 354 0162 EE0F      		lsl r30
 355 0164 FF1F      		rol r31
 356 0166 E050      		subi r30,lo8(-(uip_listenports))
 357 0168 F040      		sbci r31,hi8(-(uip_listenports))
 358 016a 1182      		std Z+1,__zero_reg__
 359 016c 1082      		st Z,__zero_reg__
 360 016e 8F5F      		subi r24,lo8(-(1))
 361               	.L28:
 362               	.LM56:
 363 0170 8230      		cpi r24,lo8(2)
 364 0172 00F0      		brlo .L29
 365 0174 20E0      		ldi r18,lo8(0)
 366               	.LM57:
 367 0176 4DEA      		ldi r20,lo8(173)
 368 0178 50E0      		ldi r21,hi8(173)
 369 017a 00C0      		rjmp .L30
 370               	.L31:
 371 017c 822F      		mov r24,r18
 372 017e 90E0      		ldi r25,lo8(0)
 373 0180 849F      		mul r24,r20
 374 0182 F001      		movw r30,r0
 375 0184 859F      		mul r24,r21
 376 0186 F00D      		add r31,r0
 377 0188 949F      		mul r25,r20
 378 018a F00D      		add r31,r0
 379 018c 1124      		clr r1
 380 018e E050      		subi r30,lo8(-(uip_conns))
 381 0190 F040      		sbci r31,hi8(-(uip_conns))
 382 0192 118E      		std Z+25,__zero_reg__
 383 0194 2F5F      		subi r18,lo8(-(1))
 384               	.L30:
 385               	.LM58:
 386 0196 2230      		cpi r18,lo8(2)
 387 0198 00F0      		brlo .L31
 388 019a 2093 0000 		sts c,r18
 389               	.LM59:
 390 019e 80E0      		ldi r24,lo8(1024)
 391 01a0 94E0      		ldi r25,hi8(1024)
 392 01a2 9093 0000 		sts (lastport)+1,r25
 393 01a6 8093 0000 		sts lastport,r24
 394               	/* epilogue start */
 395               	.LM60:
 396 01aa 0895      		ret
 397               	.LFE11:
 399               	.global	uip_connect
 401               	uip_connect:
 402               	.LFB12:
 403               	.LM61:
 404               	.LVL33:
 405 01ac CF93      		push r28
 406 01ae DF93      		push r29
 407               	/* prologue: function */
 408               	/* frame size = 0 */
 409 01b0 EC01      		movw r28,r24
 410               	.L34:
 411               	.LM62:
 412 01b2 4091 0000 		lds r20,lastport
 413 01b6 5091 0000 		lds r21,(lastport)+1
 414               	.LM63:
 415 01ba BDEA      		ldi r27,lo8(-83)
 416               	.LVL34:
 417               	.L38:
 418               	.LM64:
 419 01bc 4F5F      		subi r20,lo8(-(1))
 420 01be 5F4F      		sbci r21,hi8(-(1))
 421               	.LM65:
 422 01c0 8DE7      		ldi r24,hi8(32000)
 423 01c2 4030      		cpi r20,lo8(32000)
 424 01c4 5807      		cpc r21,r24
 425 01c6 00F0      		brlo .L35
 426 01c8 40E0      		ldi r20,lo8(4096)
 427 01ca 50E1      		ldi r21,hi8(4096)
 428               	.L35:
 429               	.LBB16:
 430               	.LBB17:
 431               	.LM66:
 432 01cc 342F      		mov r19,r20
 433 01ce 252F      		mov r18,r21
 434 01d0 A0E0      		ldi r26,lo8(0)
 435 01d2 00C0      		rjmp .L36
 436               	.L39:
 437               	.LBE17:
 438               	.LBE16:
 439               	.LM67:
 440 01d4 AB9F      		mul r26,r27
 441 01d6 F001      		movw r30,r0
 442 01d8 1124      		clr r1
 443 01da E050      		subi r30,lo8(-(uip_conns))
 444 01dc F040      		sbci r31,hi8(-(uip_conns))
 445               	.LM68:
 446 01de 818D      		ldd r24,Z+25
 447 01e0 8823      		tst r24
 448 01e2 01F0      		breq .L37
 449 01e4 8481      		ldd r24,Z+4
 450 01e6 9581      		ldd r25,Z+5
 451 01e8 8217      		cp r24,r18
 452 01ea 9307      		cpc r25,r19
 453 01ec 01F0      		breq .L38
 454               	.L37:
 455               	.LM69:
 456 01ee AF5F      		subi r26,lo8(-(1))
 457               	.L36:
 458               	.LM70:
 459 01f0 A230      		cpi r26,lo8(2)
 460 01f2 01F4      		brne .L39
 461 01f4 4093 0000 		sts lastport,r20
 462 01f8 5093 0000 		sts lastport+1,r21
 463               	.LM71:
 464 01fc 1092 0000 		sts c,__zero_reg__
 465 0200 E0E0      		ldi r30,lo8(0)
 466 0202 F0E0      		ldi r31,hi8(0)
 467               	.LVL35:
 468 0204 20E0      		ldi r18,lo8(0)
 469               	.LM72:
 470 0206 3DEA      		ldi r19,lo8(-83)
 471 0208 00C0      		rjmp .L40
 472               	.LVL36:
 473               	.L45:
 474 020a 239F      		mul r18,r19
 475 020c D001      		movw r26,r0
 476 020e 1124      		clr r1
 477 0210 A050      		subi r26,lo8(-(uip_conns))
 478 0212 B040      		sbci r27,hi8(-(uip_conns))
 479               	.LM73:
 480 0214 5996      		adiw r26,25
 481 0216 8C91      		ld r24,X
 482 0218 5997      		sbiw r26,25
 483 021a 8823      		tst r24
 484 021c 01F4      		brne .L41
 485 021e 2093 0000 		sts c,r18
 486 0222 FD01      		movw r30,r26
 487 0224 00C0      		rjmp .L42
 488               	.L41:
 489               	.LM74:
 490 0226 8730      		cpi r24,lo8(7)
 491 0228 01F4      		brne .L43
 492               	.LM75:
 493 022a 3097      		sbiw r30,0
 494 022c 01F0      		breq .L44
 495 022e 5A96      		adiw r26,26
 496 0230 9C91      		ld r25,X
 497 0232 5A97      		sbiw r26,26
 498 0234 828D      		ldd r24,Z+26
 499 0236 8917      		cp r24,r25
 500 0238 00F4      		brsh .L43
 501               	.L44:
 502 023a FD01      		movw r30,r26
 503               	.L43:
 504 023c 2F5F      		subi r18,lo8(-(1))
 505               	.L40:
 506               	.LM76:
 507 023e 2230      		cpi r18,lo8(2)
 508 0240 00F0      		brlo .L45
 509 0242 2093 0000 		sts c,r18
 510               	.L42:
 511               	.LM77:
 512 0246 3097      		sbiw r30,0
 513 0248 01F0      		breq .L46
 514               	.LM78:
 515 024a 82E0      		ldi r24,lo8(2)
 516 024c 818F      		std Z+25,r24
 517               	.LM79:
 518 024e 8091 0000 		lds r24,iss
 519 0252 8487      		std Z+12,r24
 520               	.LM80:
 521 0254 8091 0000 		lds r24,iss+1
 522 0258 8587      		std Z+13,r24
 523               	.LM81:
 524 025a 8091 0000 		lds r24,iss+2
 525 025e 8687      		std Z+14,r24
 526               	.LM82:
 527 0260 8091 0000 		lds r24,iss+3
 528 0264 8787      		std Z+15,r24
 529               	.LM83:
 530 0266 86EA      		ldi r24,lo8(1446)
 531 0268 95E0      		ldi r25,hi8(1446)
 532 026a 938B      		std Z+19,r25
 533 026c 828B      		std Z+18,r24
 534 026e 958B      		std Z+21,r25
 535 0270 848B      		std Z+20,r24
 536               	.LM84:
 537 0272 81E0      		ldi r24,lo8(1)
 538 0274 90E0      		ldi r25,hi8(1)
 539 0276 918B      		std Z+17,r25
 540 0278 808B      		std Z+16,r24
 541               	.LM85:
 542 027a 138E      		std Z+27,__zero_reg__
 543               	.LM86:
 544 027c 81E0      		ldi r24,lo8(1)
 545 027e 828F      		std Z+26,r24
 546               	.LM87:
 547 0280 83E0      		ldi r24,lo8(3)
 548 0282 808F      		std Z+24,r24
 549               	.LM88:
 550 0284 168A      		std Z+22,__zero_reg__
 551               	.LM89:
 552 0286 80E1      		ldi r24,lo8(16)
 553 0288 878B      		std Z+23,r24
 554               	.LM90:
 555 028a 5483      		std Z+4,r21
 556 028c 4583      		std Z+5,r20
 557               	.LM91:
 558 028e 7783      		std Z+7,r23
 559 0290 6683      		std Z+6,r22
 560               	.LM92:
 561 0292 8881      		ld r24,Y
 562 0294 9981      		ldd r25,Y+1
 563 0296 9183      		std Z+1,r25
 564 0298 8083      		st Z,r24
 565 029a 8A81      		ldd r24,Y+2
 566 029c 9B81      		ldd r25,Y+3
 567 029e 9383      		std Z+3,r25
 568 02a0 8283      		std Z+2,r24
 569               	.L46:
 570               	.LM93:
 571 02a2 CF01      		movw r24,r30
 572               	.LVL37:
 573               	/* epilogue start */
 574 02a4 DF91      		pop r29
 575 02a6 CF91      		pop r28
 576               	.LVL38:
 577 02a8 0895      		ret
 578               	.LFE12:
 580               	.global	uip_unlisten
 582               	uip_unlisten:
 583               	.LFB13:
 584               	.LM94:
 585               	.LVL39:
 586               	/* prologue: function */
 587               	/* frame size = 0 */
 588 02aa AC01      		movw r20,r24
 589               	.LM95:
 590 02ac 1092 0000 		sts c,__zero_reg__
 591 02b0 20E0      		ldi r18,lo8(0)
 592 02b2 00C0      		rjmp .L50
 593               	.LVL40:
 594               	.L53:
 595               	.LM96:
 596 02b4 E22F      		mov r30,r18
 597 02b6 F0E0      		ldi r31,lo8(0)
 598 02b8 322F      		mov r19,r18
 599 02ba 3F5F      		subi r19,lo8(-(1))
 600 02bc EE0F      		lsl r30
 601 02be FF1F      		rol r31
 602 02c0 E050      		subi r30,lo8(-(uip_listenports))
 603 02c2 F040      		sbci r31,hi8(-(uip_listenports))
 604 02c4 8081      		ld r24,Z
 605 02c6 9181      		ldd r25,Z+1
 606 02c8 8417      		cp r24,r20
 607 02ca 9507      		cpc r25,r21
 608 02cc 01F4      		brne .L51
 609 02ce 2093 0000 		sts c,r18
 610               	.LM97:
 611 02d2 1182      		std Z+1,__zero_reg__
 612 02d4 1082      		st Z,__zero_reg__
 613 02d6 0895      		ret
 614               	.L51:
 615               	.LM98:
 616 02d8 232F      		mov r18,r19
 617               	.LVL41:
 618               	.L50:
 619               	.LM99:
 620 02da 2230      		cpi r18,lo8(2)
 621 02dc 00F0      		brlo .L53
 622 02de 2093 0000 		sts c,r18
 623 02e2 0895      		ret
 624               	.LFE13:
 626               	.global	uip_listen
 628               	uip_listen:
 629               	.LFB14:
 630               	.LM100:
 631               	.LVL42:
 632               	/* prologue: function */
 633               	/* frame size = 0 */
 634 02e4 AC01      		movw r20,r24
 635               	.LM101:
 636 02e6 1092 0000 		sts c,__zero_reg__
 637 02ea 20E0      		ldi r18,lo8(0)
 638 02ec 00C0      		rjmp .L56
 639               	.LVL43:
 640               	.L59:
 641               	.LM102:
 642 02ee E22F      		mov r30,r18
 643 02f0 F0E0      		ldi r31,lo8(0)
 644 02f2 322F      		mov r19,r18
 645 02f4 3F5F      		subi r19,lo8(-(1))
 646 02f6 EE0F      		lsl r30
 647 02f8 FF1F      		rol r31
 648 02fa E050      		subi r30,lo8(-(uip_listenports))
 649 02fc F040      		sbci r31,hi8(-(uip_listenports))
 650 02fe 8081      		ld r24,Z
 651 0300 9181      		ldd r25,Z+1
 652 0302 892B      		or r24,r25
 653 0304 01F4      		brne .L57
 654 0306 2093 0000 		sts c,r18
 655               	.LM103:
 656 030a 5183      		std Z+1,r21
 657 030c 4083      		st Z,r20
 658 030e 0895      		ret
 659               	.L57:
 660               	.LM104:
 661 0310 232F      		mov r18,r19
 662               	.LVL44:
 663               	.L56:
 664               	.LM105:
 665 0312 2230      		cpi r18,lo8(2)
 666 0314 00F0      		brlo .L59
 667 0316 2093 0000 		sts c,r18
 668 031a 0895      		ret
 669               	.LFE14:
 672               	uip_add_rcv_nxt:
 673               	.LFB15:
 674               	.LM106:
 675               	.LVL45:
 676               	/* prologue: function */
 677               	/* frame size = 0 */
 678 031c BC01      		movw r22,r24
 679               	.LM107:
 680 031e 8091 0000 		lds r24,uip_conn
 681 0322 9091 0000 		lds r25,(uip_conn)+1
 682               	.LVL46:
 683 0326 0896      		adiw r24,8
 684 0328 0E94 0000 		call uip_add32
 685               	.LVL47:
 686               	.LM108:
 687 032c E091 0000 		lds r30,uip_conn
 688 0330 F091 0000 		lds r31,(uip_conn)+1
 689 0334 8091 0000 		lds r24,uip_acc32
 690 0338 8087      		std Z+8,r24
 691               	.LM109:
 692 033a 8091 0000 		lds r24,uip_acc32+1
 693 033e 8187      		std Z+9,r24
 694               	.LM110:
 695 0340 8091 0000 		lds r24,uip_acc32+2
 696 0344 8287      		std Z+10,r24
 697               	.LM111:
 698 0346 8091 0000 		lds r24,uip_acc32+3
 699 034a 8387      		std Z+11,r24
 700               	/* epilogue start */
 701               	.LM112:
 702 034c 0895      		ret
 703               	.LFE15:
 705               	.global	htons
 707               	htons:
 708               	.LFB17:
 709               	.LM113:
 710               	.LVL48:
 711               	/* prologue: function */
 712               	/* frame size = 0 */
 713 034e 282F      		mov r18,r24
 714               	.LM114:
 715 0350 892F      		mov r24,r25
 716               	.LVL49:
 717 0352 922F      		mov r25,r18
 718               	.LVL50:
 719               	/* epilogue start */
 720 0354 0895      		ret
 721               	.LFE17:
 723               	.global	uip_send
 725               	uip_send:
 726               	.LFB19:
 727               	.LM115:
 728               	.LVL51:
 729               	/* prologue: function */
 730               	/* frame size = 0 */
 731 0356 AC01      		movw r20,r24
 732 0358 FB01      		movw r30,r22
 733               	.LM116:
 734 035a 1616      		cp __zero_reg__,r22
 735 035c 1706      		cpc __zero_reg__,r23
 736 035e 04F4      		brge .L68
 737               	.LVL52:
 738               	.LM117:
 739 0360 6093 0000 		sts uip_slen,r22
 740 0364 F093 0000 		sts uip_slen+1,r31
 741               	.LVL53:
 742               	.LM118:
 743 0368 2091 0000 		lds r18,uip_sappdata
 744 036c 3091 0000 		lds r19,(uip_sappdata)+1
 745 0370 8217      		cp r24,r18
 746 0372 9307      		cpc r25,r19
 747 0374 01F0      		breq .L68
 748               	.LVL54:
 749               	.LM119:
 750 0376 C901      		movw r24,r18
 751               	.LVL55:
 752 0378 BA01      		movw r22,r20
 753               	.LVL56:
 754 037a AF01      		movw r20,r30
 755               	.LVL57:
 756 037c 0E94 0000 		call memcpy
 757               	.LVL58:
 758               	.L68:
 759 0380 0895      		ret
 760               	.LFE19:
 762               	.global	uip_send_P
 764               	uip_send_P:
 765               	.LFB18:
 766               	.LM120:
 767               	.LVL59:
 768               	/* prologue: function */
 769               	/* frame size = 0 */
 770 0382 AC01      		movw r20,r24
 771 0384 9B01      		movw r18,r22
 772               	.LM121:
 773 0386 1616      		cp __zero_reg__,r22
 774 0388 1706      		cpc __zero_reg__,r23
 775 038a 04F4      		brge .L71
 776               	.LVL60:
 777               	.LM122:
 778 038c 6093 0000 		sts uip_slen,r22
 779 0390 3093 0000 		sts uip_slen+1,r19
 780               	.LVL61:
 781               	.LM123:
 782 0394 8091 0000 		lds r24,uip_sappdata
 783 0398 9091 0000 		lds r25,(uip_sappdata)+1
 784 039c BA01      		movw r22,r20
 785               	.LVL62:
 786 039e A901      		movw r20,r18
 787               	.LVL63:
 788 03a0 0E94 0000 		call memcpy_P
 789               	.LVL64:
 790               	.L71:
 791 03a4 0895      		ret
 792               	.LFE18:
 794               		.data
 795               	.LC0:
 796 0000 6970 3A20 		.string	"ip: invalid version or header length."
 796      696E 7661 
 796      6C69 6420 
 796      7665 7273 
 796      696F 6E20 
 797               	.LC1:
 798 0026 6970 3A20 		.string	"ip: packet shorter than reported in IP header."
 798      7061 636B 
 798      6574 2073 
 798      686F 7274 
 798      6572 2074 
 799               	.LC2:
 800 0055 6970 3A20 		.string	"ip: fragment dropped."
 800      6672 6167 
 800      6D65 6E74 
 800      2064 726F 
 800      7070 6564 
 801               	.LC3:
 802 006b 6970 3A20 		.string	"ip: bad checksum."
 802      6261 6420 
 802      6368 6563 
 802      6B73 756D 
 802      2E00 
 803               	.LC4:
 804 007d 6970 3A20 		.string	"ip: neither tcp nor icmp."
 804      6E65 6974 
 804      6865 7220 
 804      7463 7020 
 804      6E6F 7220 
 805               	.LC5:
 806 0097 6963 6D70 		.string	"icmp: not icmp echo."
 806      3A20 6E6F 
 806      7420 6963 
 806      6D70 2065 
 806      6368 6F2E 
 807               	.LC6:
 808 00ac 7463 703A 		.string	"tcp: bad checksum."
 808      2062 6164 
 808      2063 6865 
 808      636B 7375 
 808      6D2E 00
 809               	.LC7:
 810 00bf 7463 703A 		.string	"tcp: found no unused connections."
 810      2066 6F75 
 810      6E64 206E 
 810      6F20 756E 
 810      7573 6564 
 811               	.LC8:
 812 00e1 7463 703A 		.string	"tcp: got reset, aborting connection."
 812      2067 6F74 
 812      2072 6573 
 812      6574 2C20 
 812      6162 6F72 
 813               		.text
 814               	.global	uip_process
 816               	uip_process:
 817               	.LFB16:
 818               	.LM124:
 819               	.LVL65:
 820 03a6 0F93      		push r16
 821 03a8 1F93      		push r17
 822 03aa CF93      		push r28
 823 03ac DF93      		push r29
 824               	/* prologue: function */
 825               	/* frame size = 0 */
 826               	.LM125:
 827 03ae C091 0000 		lds r28,uip_conn
 828 03b2 D091 0000 		lds r29,(uip_conn)+1
 829               	.LVL66:
 830               	.LM126:
 831 03b6 20E0      		ldi r18,lo8(uip_buf+54)
 832 03b8 30E0      		ldi r19,hi8(uip_buf+54)
 833 03ba 3093 0000 		sts (uip_appdata)+1,r19
 834 03be 2093 0000 		sts uip_appdata,r18
 835 03c2 3093 0000 		sts (uip_sappdata)+1,r19
 836 03c6 2093 0000 		sts uip_sappdata,r18
 837               	.LM127:
 838 03ca 8330      		cpi r24,lo8(3)
 839 03cc 01F4      		brne .L73
 840               	.LM128:
 841 03ce 898D      		ldd r24,Y+25
 842               	.LVL67:
 843 03d0 8F70      		andi r24,lo8(15)
 844 03d2 8330      		cpi r24,lo8(3)
 845 03d4 01F0      		breq .+2
 846 03d6 00C0      		rjmp .L74
 847 03d8 8889      		ldd r24,Y+16
 848 03da 9989      		ldd r25,Y+17
 849 03dc 892B      		or r24,r25
 850 03de 01F0      		breq .+2
 851 03e0 00C0      		rjmp .L74
 852 03e2 00C0      		rjmp .L192
 853               	.LVL68:
 854               	.L73:
 855               	.LM129:
 856 03e4 8230      		cpi r24,lo8(2)
 857 03e6 01F0      		breq .+2
 858 03e8 00C0      		rjmp .L76
 859               	.LM130:
 860 03ea 8091 0000 		lds r24,iss+3
 861               	.LVL69:
 862 03ee 8F5F      		subi r24,lo8(-(1))
 863 03f0 8093 0000 		sts iss+3,r24
 864 03f4 8823      		tst r24
 865 03f6 01F4      		brne .L77
 866               	.LM131:
 867 03f8 8091 0000 		lds r24,iss+2
 868 03fc 8F5F      		subi r24,lo8(-(1))
 869 03fe 8093 0000 		sts iss+2,r24
 870 0402 8823      		tst r24
 871 0404 01F4      		brne .L77
 872               	.LM132:
 873 0406 8091 0000 		lds r24,iss+1
 874 040a 8F5F      		subi r24,lo8(-(1))
 875 040c 8093 0000 		sts iss+1,r24
 876 0410 8823      		tst r24
 877 0412 01F4      		brne .L77
 878               	.LM133:
 879 0414 8091 0000 		lds r24,iss
 880 0418 8F5F      		subi r24,lo8(-(1))
 881 041a 8093 0000 		sts iss,r24
 882               	.L77:
 883               	.LM134:
 884 041e 1092 0000 		sts (uip_len)+1,__zero_reg__
 885 0422 1092 0000 		sts uip_len,__zero_reg__
 886               	.LM135:
 887 0426 1092 0000 		sts (uip_slen)+1,__zero_reg__
 888 042a 1092 0000 		sts uip_slen,__zero_reg__
 889               	.LM136:
 890 042e 298D      		ldd r18,Y+25
 891 0430 2730      		cpi r18,lo8(7)
 892 0432 01F0      		breq .L78
 893 0434 2530      		cpi r18,lo8(5)
 894 0436 01F4      		brne .L79
 895               	.L78:
 896               	.LM137:
 897 0438 8A8D      		ldd r24,Y+26
 898 043a 8F5F      		subi r24,lo8(-(1))
 899 043c 8A8F      		std Y+26,r24
 900               	.LM138:
 901 043e 8837      		cpi r24,lo8(120)
 902 0440 01F0      		breq .+2
 903 0442 00C0      		rjmp .L74
 904               	.LM139:
 905 0444 198E      		std Y+25,__zero_reg__
 906 0446 00C0      		rjmp .L74
 907               	.L79:
 908               	.LM140:
 909 0448 2223      		tst r18
 910 044a 01F4      		brne .+2
 911 044c 00C0      		rjmp .L74
 912               	.LM141:
 913 044e 8889      		ldd r24,Y+16
 914 0450 9989      		ldd r25,Y+17
 915 0452 892B      		or r24,r25
 916 0454 01F4      		brne .+2
 917 0456 00C0      		rjmp .L80
 918               	.LM142:
 919 0458 8A8D      		ldd r24,Y+26
 920 045a 8150      		subi r24,lo8(-(-1))
 921 045c 8A8F      		std Y+26,r24
 922 045e 8F5F      		subi r24,lo8(-(1))
 923 0460 01F0      		breq .+2
 924 0462 00C0      		rjmp .L74
 925               	.LM143:
 926 0464 3B8D      		ldd r19,Y+27
 927 0466 3830      		cpi r19,lo8(8)
 928 0468 01F0      		breq .L81
 929 046a 2150      		subi r18,lo8(-(-1))
 930 046c 2230      		cpi r18,lo8(2)
 931 046e 00F4      		brsh .L82
 932 0470 3530      		cpi r19,lo8(5)
 933 0472 01F4      		brne .L82
 934               	.L81:
 935               	.LM144:
 936 0474 198E      		std Y+25,__zero_reg__
 937               	.LM145:
 938 0476 80E8      		ldi r24,lo8(-128)
 939 0478 8093 0000 		sts uip_flags,r24
 940               	.LM146:
 941 047c 0E94 0000 		call httpd_appcall
 942 0480 00C0      		rjmp .L191
 943               	.L82:
 944               	.LM147:
 945 0482 3530      		cpi r19,lo8(5)
 946 0484 00F0      		brlo .L84
 947 0486 80E3      		ldi r24,lo8(48)
 948 0488 00C0      		rjmp .L85
 949               	.L84:
 950 048a 83E0      		ldi r24,lo8(3)
 951 048c 90E0      		ldi r25,hi8(3)
 952 048e 00C0      		rjmp 2f
 953 0490 880F      	1:	lsl r24
 954 0492 991F      		rol r25
 955 0494 3A95      	2:	dec r19
 956 0496 02F4      		brpl 1b
 957               	.L85:
 958 0498 8A8F      		std Y+26,r24
 959               	.LM148:
 960 049a 8B8D      		ldd r24,Y+27
 961 049c 8F5F      		subi r24,lo8(-(1))
 962 049e 8B8F      		std Y+27,r24
 963               	.LM149:
 964 04a0 8091 0000 		lds r24,uip_stat+38
 965 04a4 9091 0000 		lds r25,(uip_stat+38)+1
 966 04a8 0196      		adiw r24,1
 967 04aa 9093 0000 		sts (uip_stat+38)+1,r25
 968 04ae 8093 0000 		sts uip_stat+38,r24
 969               	.LM150:
 970 04b2 898D      		ldd r24,Y+25
 971 04b4 90E0      		ldi r25,lo8(0)
 972 04b6 8F70      		andi r24,lo8(15)
 973 04b8 9070      		andi r25,hi8(15)
 974 04ba 8330      		cpi r24,3
 975 04bc 9105      		cpc r25,__zero_reg__
 976 04be 01F0      		breq .L88
 977 04c0 8430      		cpi r24,4
 978 04c2 9105      		cpc r25,__zero_reg__
 979 04c4 04F4      		brge .L90
 980 04c6 8130      		cpi r24,1
 981 04c8 9105      		cpc r25,__zero_reg__
 982 04ca 01F4      		brne .+2
 983 04cc 00C0      		rjmp .L86
 984 04ce 0297      		sbiw r24,2
 985 04d0 01F0      		breq .+2
 986 04d2 00C0      		rjmp .L74
 987 04d4 00C0      		rjmp .L195
 988               	.L90:
 989 04d6 8630      		cpi r24,6
 990 04d8 9105      		cpc r25,__zero_reg__
 991 04da 01F4      		brne .+2
 992 04dc 00C0      		rjmp .L89
 993 04de 8830      		cpi r24,8
 994 04e0 9105      		cpc r25,__zero_reg__
 995 04e2 01F4      		brne .+2
 996 04e4 00C0      		rjmp .L89
 997 04e6 0497      		sbiw r24,4
 998 04e8 01F0      		breq .+2
 999 04ea 00C0      		rjmp .L74
 1000 04ec 00C0      		rjmp .L89
 1001               	.L195:
 1002               	.LM151:
 1003 04ee 1092 0000 		sts uip_buf+47,__zero_reg__
 1004 04f2 00C0      		rjmp .L91
 1005               	.L88:
 1006               	.LM152:
 1007 04f4 84E0      		ldi r24,lo8(4)
 1008 04f6 8093 0000 		sts uip_flags,r24
 1009               	.LM153:
 1010 04fa 0E94 0000 		call httpd_appcall
 1011 04fe 00C0      		rjmp .L92
 1012               	.L80:
 1013               	.LM154:
 1014 0500 2F70      		andi r18,lo8(15)
 1015 0502 2330      		cpi r18,lo8(3)
 1016 0504 01F0      		breq .+2
 1017 0506 00C0      		rjmp .L74
 1018               	.L192:
 1019               	.LM155:
 1020 0508 88E0      		ldi r24,lo8(8)
 1021 050a 8093 0000 		sts uip_flags,r24
 1022 050e 00C0      		rjmp .L183
 1023               	.LVL70:
 1024               	.L76:
 1025               	.LM156:
 1026 0510 8091 0000 		lds r24,uip_stat+2
 1027 0514 9091 0000 		lds r25,(uip_stat+2)+1
 1028               	.LVL71:
 1029 0518 0196      		adiw r24,1
 1030 051a 9093 0000 		sts (uip_stat+2)+1,r25
 1031 051e 8093 0000 		sts uip_stat+2,r24
 1032               	.LM157:
 1033 0522 8901      		movw r16,r18
 1034 0524 0852      		subi r16,lo8(-(-40))
 1035 0526 1040      		sbci r17,hi8(-(-40))
 1036 0528 8091 0000 		lds r24,uip_buf+14
 1037 052c 8534      		cpi r24,lo8(69)
 1038 052e 01F0      		breq .L93
 1039               	.LM158:
 1040 0530 8091 0000 		lds r24,uip_stat
 1041 0534 9091 0000 		lds r25,(uip_stat)+1
 1042 0538 0196      		adiw r24,1
 1043 053a 9093 0000 		sts (uip_stat)+1,r25
 1044 053e 8093 0000 		sts uip_stat,r24
 1045               	.LM159:
 1046 0542 8091 0000 		lds r24,uip_stat+6
 1047 0546 9091 0000 		lds r25,(uip_stat+6)+1
 1048 054a 0196      		adiw r24,1
 1049 054c 9093 0000 		sts (uip_stat+6)+1,r25
 1050 0550 8093 0000 		sts uip_stat+6,r24
 1051               	.LM160:
 1052 0554 80E0      		ldi r24,lo8(.LC0)
 1053 0556 90E0      		ldi r25,hi8(.LC0)
 1054 0558 00C0      		rjmp .L188
 1055               	.L93:
 1056               	.LM161:
 1057 055a 9091 0000 		lds r25,uip_buf+16
 1058 055e 80E0      		ldi r24,lo8(0)
 1059 0560 2091 0000 		lds r18,uip_buf+17
 1060 0564 AC01      		movw r20,r24
 1061 0566 420F      		add r20,r18
 1062 0568 511D      		adc r21,__zero_reg__
 1063 056a 8091 0000 		lds r24,uip_len
 1064 056e 9091 0000 		lds r25,(uip_len)+1
 1065 0572 8417      		cp r24,r20
 1066 0574 9507      		cpc r25,r21
 1067 0576 00F0      		brlo .L94
 1068               	.LM162:
 1069 0578 5093 0000 		sts (uip_len)+1,r21
 1070 057c 4093 0000 		sts uip_len,r20
 1071               	.LM163:
 1072 0580 8091 0000 		lds r24,uip_buf+20
 1073 0584 90E0      		ldi r25,lo8(0)
 1074 0586 8F73      		andi r24,lo8(63)
 1075 0588 9070      		andi r25,hi8(63)
 1076 058a 892B      		or r24,r25
 1077 058c 01F0      		breq .L179
 1078 058e 00C0      		rjmp .L95
 1079               	.L94:
 1080               	.LM164:
 1081 0590 80E0      		ldi r24,lo8(.LC1)
 1082 0592 90E0      		ldi r25,hi8(.LC1)
 1083               	.L188:
 1084 0594 0E94 0000 		call uip_log
 1085 0598 00C0      		rjmp .L74
 1086               	.L179:
 1087               	.LM165:
 1088 059a 8091 0000 		lds r24,uip_buf+21
 1089 059e 8823      		tst r24
 1090 05a0 01F0      		breq .L97
 1091               	.L95:
 1092               	.LM166:
 1093 05a2 8091 0000 		lds r24,uip_stat
 1094 05a6 9091 0000 		lds r25,(uip_stat)+1
 1095 05aa 0196      		adiw r24,1
 1096 05ac 9093 0000 		sts (uip_stat)+1,r25
 1097 05b0 8093 0000 		sts uip_stat,r24
 1098               	.LM167:
 1099 05b4 8091 0000 		lds r24,uip_stat+12
 1100 05b8 9091 0000 		lds r25,(uip_stat+12)+1
 1101 05bc 0196      		adiw r24,1
 1102 05be 9093 0000 		sts (uip_stat+12)+1,r25
 1103 05c2 8093 0000 		sts uip_stat+12,r24
 1104               	.LM168:
 1105 05c6 80E0      		ldi r24,lo8(.LC2)
 1106 05c8 90E0      		ldi r25,hi8(.LC2)
 1107 05ca 00C0      		rjmp .L188
 1108               	.L97:
 1109               	.LM169:
 1110 05cc 2091 0000 		lds r18,uip_hostaddr
 1111 05d0 3091 0000 		lds r19,(uip_hostaddr)+1
 1112 05d4 8091 0000 		lds r24,all_zeroes_addr
 1113 05d8 9091 0000 		lds r25,(all_zeroes_addr)+1
 1114 05dc 2817      		cp r18,r24
 1115 05de 3907      		cpc r19,r25
 1116 05e0 01F4      		brne .L98
 1117 05e2 8091 0000 		lds r24,uip_hostaddr+2
 1118 05e6 9091 0000 		lds r25,(uip_hostaddr+2)+1
 1119 05ea 892B      		or r24,r25
 1120 05ec 01F0      		breq .L99
 1121               	.L98:
 1122               	.LM170:
 1123 05ee 8091 0000 		lds r24,uip_buf+30
 1124 05f2 9091 0000 		lds r25,(uip_buf+30)+1
 1125 05f6 8217      		cp r24,r18
 1126 05f8 9307      		cpc r25,r19
 1127 05fa 01F4      		brne .L100
 1128 05fc 2091 0000 		lds r18,uip_buf+32
 1129 0600 3091 0000 		lds r19,(uip_buf+32)+1
 1130 0604 8091 0000 		lds r24,uip_hostaddr+2
 1131 0608 9091 0000 		lds r25,(uip_hostaddr+2)+1
 1132 060c 2817      		cp r18,r24
 1133 060e 3907      		cpc r19,r25
 1134 0610 01F0      		breq .L99
 1135               	.L100:
 1136               	.LM171:
 1137 0612 8091 0000 		lds r24,uip_stat
 1138 0616 9091 0000 		lds r25,(uip_stat)+1
 1139 061a 0196      		adiw r24,1
 1140 061c 9093 0000 		sts (uip_stat)+1,r25
 1141 0620 8093 0000 		sts uip_stat,r24
 1142 0624 00C0      		rjmp .L74
 1143               	.L99:
 1144               	.LM172:
 1145 0626 0E94 0000 		call uip_ipchksum
 1146 062a 8F5F      		subi r24,lo8(-1)
 1147 062c 9F4F      		sbci r25,hi8(-1)
 1148 062e 01F0      		breq .L101
 1149               	.LM173:
 1150 0630 8091 0000 		lds r24,uip_stat
 1151 0634 9091 0000 		lds r25,(uip_stat)+1
 1152 0638 0196      		adiw r24,1
 1153 063a 9093 0000 		sts (uip_stat)+1,r25
 1154 063e 8093 0000 		sts uip_stat,r24
 1155               	.LM174:
 1156 0642 8091 0000 		lds r24,uip_stat+14
 1157 0646 9091 0000 		lds r25,(uip_stat+14)+1
 1158 064a 0196      		adiw r24,1
 1159 064c 9093 0000 		sts (uip_stat+14)+1,r25
 1160 0650 8093 0000 		sts uip_stat+14,r24
 1161               	.LM175:
 1162 0654 80E0      		ldi r24,lo8(.LC3)
 1163 0656 90E0      		ldi r25,hi8(.LC3)
 1164 0658 00C0      		rjmp .L188
 1165               	.L101:
 1166               	.LM176:
 1167 065a 8091 0000 		lds r24,uip_buf+23
 1168 065e 8630      		cpi r24,lo8(6)
 1169 0660 01F4      		brne .+2
 1170 0662 00C0      		rjmp .L102
 1171               	.LM177:
 1172 0664 8130      		cpi r24,lo8(1)
 1173 0666 01F0      		breq .L103
 1174               	.LM178:
 1175 0668 8091 0000 		lds r24,uip_stat
 1176 066c 9091 0000 		lds r25,(uip_stat)+1
 1177 0670 0196      		adiw r24,1
 1178 0672 9093 0000 		sts (uip_stat)+1,r25
 1179 0676 8093 0000 		sts uip_stat,r24
 1180               	.LM179:
 1181 067a 8091 0000 		lds r24,uip_stat+16
 1182 067e 9091 0000 		lds r25,(uip_stat+16)+1
 1183 0682 0196      		adiw r24,1
 1184 0684 9093 0000 		sts (uip_stat+16)+1,r25
 1185 0688 8093 0000 		sts uip_stat+16,r24
 1186               	.LM180:
 1187 068c 80E0      		ldi r24,lo8(.LC4)
 1188 068e 90E0      		ldi r25,hi8(.LC4)
 1189 0690 00C0      		rjmp .L188
 1190               	.L103:
 1191               	.LM181:
 1192 0692 8091 0000 		lds r24,uip_stat+20
 1193 0696 9091 0000 		lds r25,(uip_stat+20)+1
 1194 069a 0196      		adiw r24,1
 1195 069c 9093 0000 		sts (uip_stat+20)+1,r25
 1196 06a0 8093 0000 		sts uip_stat+20,r24
 1197               	.LM182:
 1198 06a4 8091 0000 		lds r24,uip_buf+34
 1199 06a8 8830      		cpi r24,lo8(8)
 1200 06aa 01F0      		breq .L104
 1201               	.LM183:
 1202 06ac 8091 0000 		lds r24,uip_stat+18
 1203 06b0 9091 0000 		lds r25,(uip_stat+18)+1
 1204 06b4 0196      		adiw r24,1
 1205 06b6 9093 0000 		sts (uip_stat+18)+1,r25
 1206 06ba 8093 0000 		sts uip_stat+18,r24
 1207               	.LM184:
 1208 06be 8091 0000 		lds r24,uip_stat+24
 1209 06c2 9091 0000 		lds r25,(uip_stat+24)+1
 1210 06c6 0196      		adiw r24,1
 1211 06c8 9093 0000 		sts (uip_stat+24)+1,r25
 1212 06cc 8093 0000 		sts uip_stat+24,r24
 1213               	.LM185:
 1214 06d0 80E0      		ldi r24,lo8(.LC5)
 1215 06d2 90E0      		ldi r25,hi8(.LC5)
 1216 06d4 00C0      		rjmp .L188
 1217               	.L104:
 1218               	.LM186:
 1219 06d6 1092 0000 		sts uip_buf+34,__zero_reg__
 1220               	.LM187:
 1221 06da 8091 0000 		lds r24,uip_buf+36
 1222 06de 9091 0000 		lds r25,(uip_buf+36)+1
 1223 06e2 EFEF      		ldi r30,hi8(-9)
 1224 06e4 873F      		cpi r24,lo8(-9)
 1225 06e6 9E07      		cpc r25,r30
 1226 06e8 00F0      		brlo .L105
 1227               	.LM188:
 1228 06ea 0996      		adiw r24,9
 1229 06ec 00C0      		rjmp .L182
 1230               	.L105:
 1231               	.LM189:
 1232 06ee 0896      		adiw r24,8
 1233               	.L182:
 1234 06f0 9093 0000 		sts (uip_buf+36)+1,r25
 1235 06f4 8093 0000 		sts uip_buf+36,r24
 1236               	.LM190:
 1237 06f8 8091 0000 		lds r24,uip_buf+26
 1238 06fc 9091 0000 		lds r25,(uip_buf+26)+1
 1239 0700 9093 0000 		sts (uip_buf+30)+1,r25
 1240 0704 8093 0000 		sts uip_buf+30,r24
 1241 0708 8091 0000 		lds r24,uip_buf+28
 1242 070c 9091 0000 		lds r25,(uip_buf+28)+1
 1243 0710 9093 0000 		sts (uip_buf+32)+1,r25
 1244 0714 8093 0000 		sts uip_buf+32,r24
 1245               	.LM191:
 1246 0718 8091 0000 		lds r24,uip_hostaddr
 1247 071c 9091 0000 		lds r25,(uip_hostaddr)+1
 1248 0720 9093 0000 		sts (uip_buf+26)+1,r25
 1249 0724 8093 0000 		sts uip_buf+26,r24
 1250 0728 8091 0000 		lds r24,uip_hostaddr+2
 1251 072c 9091 0000 		lds r25,(uip_hostaddr+2)+1
 1252 0730 9093 0000 		sts (uip_buf+28)+1,r25
 1253 0734 8093 0000 		sts uip_buf+28,r24
 1254               	.LM192:
 1255 0738 8091 0000 		lds r24,uip_stat+22
 1256 073c 9091 0000 		lds r25,(uip_stat+22)+1
 1257 0740 0196      		adiw r24,1
 1258 0742 9093 0000 		sts (uip_stat+22)+1,r25
 1259 0746 8093 0000 		sts uip_stat+22,r24
 1260 074a 00C0      		rjmp .L107
 1261               	.L102:
 1262               	.LM193:
 1263 074c 8091 0000 		lds r24,uip_stat+28
 1264 0750 9091 0000 		lds r25,(uip_stat+28)+1
 1265 0754 0196      		adiw r24,1
 1266 0756 9093 0000 		sts (uip_stat+28)+1,r25
 1267 075a 8093 0000 		sts uip_stat+28,r24
 1268               	.LM194:
 1269 075e 0E94 0000 		call uip_tcpchksum
 1270 0762 8F5F      		subi r24,lo8(-1)
 1271 0764 9F4F      		sbci r25,hi8(-1)
 1272 0766 01F0      		breq .L108
 1273               	.LM195:
 1274 0768 8091 0000 		lds r24,uip_stat+26
 1275 076c 9091 0000 		lds r25,(uip_stat+26)+1
 1276 0770 0196      		adiw r24,1
 1277 0772 9093 0000 		sts (uip_stat+26)+1,r25
 1278 0776 8093 0000 		sts uip_stat+26,r24
 1279               	.LM196:
 1280 077a 8091 0000 		lds r24,uip_stat+32
 1281 077e 9091 0000 		lds r25,(uip_stat+32)+1
 1282 0782 0196      		adiw r24,1
 1283 0784 9093 0000 		sts (uip_stat+32)+1,r25
 1284 0788 8093 0000 		sts uip_stat+32,r24
 1285               	.LM197:
 1286 078c 80E0      		ldi r24,lo8(.LC6)
 1287 078e 90E0      		ldi r25,hi8(.LC6)
 1288 0790 00C0      		rjmp .L188
 1289               	.L108:
 1290               	.LM198:
 1291 0792 C0E0      		ldi r28,lo8(uip_conns)
 1292 0794 D0E0      		ldi r29,hi8(uip_conns)
 1293               	.L111:
 1294               	.LM199:
 1295 0796 898D      		ldd r24,Y+25
 1296 0798 8823      		tst r24
 1297 079a 01F0      		breq .L109
 1298 079c 2091 0000 		lds r18,uip_buf+36
 1299 07a0 3091 0000 		lds r19,(uip_buf+36)+1
 1300 07a4 8C81      		ldd r24,Y+4
 1301 07a6 9D81      		ldd r25,Y+5
 1302 07a8 2817      		cp r18,r24
 1303 07aa 3907      		cpc r19,r25
 1304 07ac 01F4      		brne .L109
 1305 07ae 2091 0000 		lds r18,uip_buf+34
 1306 07b2 3091 0000 		lds r19,(uip_buf+34)+1
 1307 07b6 8E81      		ldd r24,Y+6
 1308 07b8 9F81      		ldd r25,Y+7
 1309 07ba 2817      		cp r18,r24
 1310 07bc 3907      		cpc r19,r25
 1311 07be 01F4      		brne .L109
 1312 07c0 2091 0000 		lds r18,uip_buf+26
 1313 07c4 3091 0000 		lds r19,(uip_buf+26)+1
 1314 07c8 8881      		ld r24,Y
 1315 07ca 9981      		ldd r25,Y+1
 1316 07cc 2817      		cp r18,r24
 1317 07ce 3907      		cpc r19,r25
 1318 07d0 01F4      		brne .L109
 1319 07d2 2091 0000 		lds r18,uip_buf+28
 1320 07d6 3091 0000 		lds r19,(uip_buf+28)+1
 1321 07da 8A81      		ldd r24,Y+2
 1322 07dc 9B81      		ldd r25,Y+3
 1323 07de 2817      		cp r18,r24
 1324 07e0 3907      		cpc r19,r25
 1325 07e2 01F4      		brne .+2
 1326 07e4 00C0      		rjmp .L110
 1327               	.L109:
 1328               	.LM200:
 1329 07e6 C355      		subi r28,lo8(-(173))
 1330 07e8 DF4F      		sbci r29,hi8(-(173))
 1331               	.LM201:
 1332 07ea 20E0      		ldi r18,hi8(uip_conns+173)
 1333 07ec C030      		cpi r28,lo8(uip_conns+173)
 1334 07ee D207      		cpc r29,r18
 1335 07f0 01F0      		breq .L111
 1336 07f2 00F0      		brlo .L111
 1337               	.LM202:
 1338 07f4 8091 0000 		lds r24,uip_buf+47
 1339 07f8 8F73      		andi r24,lo8(63)
 1340 07fa 8230      		cpi r24,lo8(2)
 1341 07fc 01F4      		brne .L112
 1342               	.LM203:
 1343 07fe 8091 0000 		lds r24,uip_buf+36
 1344 0802 9091 0000 		lds r25,(uip_buf+36)+1
 1345 0806 9093 0000 		sts (tmp16)+1,r25
 1346 080a 8093 0000 		sts tmp16,r24
 1347               	.LM204:
 1348 080e 1092 0000 		sts c,__zero_reg__
 1349 0812 00C0      		rjmp .L113
 1350               	.L115:
 1351               	.LM205:
 1352 0814 E42F      		mov r30,r20
 1353 0816 F0E0      		ldi r31,lo8(0)
 1354 0818 EE0F      		lsl r30
 1355 081a FF1F      		rol r31
 1356 081c E050      		subi r30,lo8(-(uip_listenports))
 1357 081e F040      		sbci r31,hi8(-(uip_listenports))
 1358 0820 2091 0000 		lds r18,tmp16
 1359 0824 3091 0000 		lds r19,(tmp16)+1
 1360 0828 8081      		ld r24,Z
 1361 082a 9181      		ldd r25,Z+1
 1362 082c 2817      		cp r18,r24
 1363 082e 3907      		cpc r19,r25
 1364 0830 01F4      		brne .+2
 1365 0832 00C0      		rjmp .L114
 1366               	.LM206:
 1367 0834 4F5F      		subi r20,lo8(-(1))
 1368 0836 4093 0000 		sts c,r20
 1369               	.L113:
 1370 083a 4091 0000 		lds r20,c
 1371 083e 4230      		cpi r20,lo8(2)
 1372 0840 00F0      		brlo .L115
 1373               	.LM207:
 1374 0842 8091 0000 		lds r24,uip_stat+42
 1375 0846 9091 0000 		lds r25,(uip_stat+42)+1
 1376 084a 0196      		adiw r24,1
 1377 084c 9093 0000 		sts (uip_stat+42)+1,r25
 1378 0850 8093 0000 		sts uip_stat+42,r24
 1379               	.L112:
 1380               	.LM208:
 1381 0854 8091 0000 		lds r24,uip_buf+47
 1382 0858 82FD      		sbrc r24,2
 1383 085a 00C0      		rjmp .L74
 1384               	.LM209:
 1385 085c 8091 0000 		lds r24,uip_stat+36
 1386 0860 9091 0000 		lds r25,(uip_stat+36)+1
 1387 0864 0196      		adiw r24,1
 1388 0866 9093 0000 		sts (uip_stat+36)+1,r25
 1389 086a 8093 0000 		sts uip_stat+36,r24
 1390               	.LM210:
 1391 086e 84E1      		ldi r24,lo8(20)
 1392 0870 F801      		movw r30,r16
 1393 0872 81A3      		std Z+33,r24
 1394               	.LM211:
 1395 0874 88E2      		ldi r24,lo8(40)
 1396 0876 90E0      		ldi r25,hi8(40)
 1397 0878 9093 0000 		sts (uip_len)+1,r25
 1398 087c 8093 0000 		sts uip_len,r24
 1399               	.LM212:
 1400 0880 80E5      		ldi r24,lo8(80)
 1401 0882 80A3      		std Z+32,r24
 1402               	.LM213:
 1403 0884 9091 0000 		lds r25,uip_buf+41
 1404               	.LM214:
 1405 0888 8091 0000 		lds r24,uip_buf+45
 1406 088c 838F      		std Z+27,r24
 1407               	.LM215:
 1408 088e 3091 0000 		lds r19,uip_buf+40
 1409               	.LM216:
 1410 0892 8091 0000 		lds r24,uip_buf+44
 1411 0896 828F      		std Z+26,r24
 1412               	.LM217:
 1413 0898 368F      		std Z+30,r19
 1414               	.LM218:
 1415 089a 4091 0000 		lds r20,uip_buf+39
 1416               	.LM219:
 1417 089e 8091 0000 		lds r24,uip_buf+43
 1418 08a2 818F      		std Z+25,r24
 1419               	.LM220:
 1420 08a4 458F      		std Z+29,r20
 1421               	.LM221:
 1422 08a6 2091 0000 		lds r18,uip_buf+38
 1423 08aa 2093 0000 		sts c,r18
 1424               	.LM222:
 1425 08ae 8091 0000 		lds r24,uip_buf+42
 1426 08b2 808F      		std Z+24,r24
 1427               	.LM223:
 1428 08b4 248F      		std Z+28,r18
 1429               	.LM224:
 1430 08b6 9F5F      		subi r25,lo8(-(1))
 1431 08b8 978F      		std Z+31,r25
 1432 08ba 9923      		tst r25
 1433 08bc 01F4      		brne .L116
 1434               	.LM225:
 1435 08be 832F      		mov r24,r19
 1436 08c0 8F5F      		subi r24,lo8(-(1))
 1437 08c2 868F      		std Z+30,r24
 1438 08c4 8823      		tst r24
 1439 08c6 01F4      		brne .L116
 1440               	.LM226:
 1441 08c8 842F      		mov r24,r20
 1442 08ca 8F5F      		subi r24,lo8(-(1))
 1443 08cc 858F      		std Z+29,r24
 1444 08ce 8823      		tst r24
 1445 08d0 01F4      		brne .L116
 1446               	.LM227:
 1447 08d2 2F5F      		subi r18,lo8(-(1))
 1448 08d4 248F      		std Z+28,r18
 1449               	.L116:
 1450               	.LM228:
 1451 08d6 2091 0000 		lds r18,uip_buf+34
 1452 08da 3091 0000 		lds r19,(uip_buf+34)+1
 1453 08de 3093 0000 		sts (tmp16)+1,r19
 1454 08e2 2093 0000 		sts tmp16,r18
 1455               	.LM229:
 1456 08e6 8091 0000 		lds r24,uip_buf+36
 1457 08ea 9091 0000 		lds r25,(uip_buf+36)+1
 1458 08ee F801      		movw r30,r16
 1459 08f0 958B      		std Z+21,r25
 1460 08f2 848B      		std Z+20,r24
 1461               	.LM230:
 1462 08f4 378B      		std Z+23,r19
 1463 08f6 268B      		std Z+22,r18
 1464               	.LM231:
 1465 08f8 8091 0000 		lds r24,uip_buf+26
 1466 08fc 9091 0000 		lds r25,(uip_buf+26)+1
 1467 0900 9093 0000 		sts (uip_buf+30)+1,r25
 1468 0904 8093 0000 		sts uip_buf+30,r24
 1469 0908 8091 0000 		lds r24,uip_buf+28
 1470 090c 9091 0000 		lds r25,(uip_buf+28)+1
 1471 0910 9093 0000 		sts (uip_buf+32)+1,r25
 1472 0914 8093 0000 		sts uip_buf+32,r24
 1473               	.LM232:
 1474 0918 8091 0000 		lds r24,uip_hostaddr
 1475 091c 9091 0000 		lds r25,(uip_hostaddr)+1
 1476 0920 9093 0000 		sts (uip_buf+26)+1,r25
 1477 0924 8093 0000 		sts uip_buf+26,r24
 1478 0928 8091 0000 		lds r24,uip_hostaddr+2
 1479 092c 9091 0000 		lds r25,(uip_hostaddr+2)+1
 1480 0930 9093 0000 		sts (uip_buf+28)+1,r25
 1481 0934 8093 0000 		sts uip_buf+28,r24
 1482 0938 00C0      		rjmp .L117
 1483               	.L114:
 1484               	.LM233:
 1485 093a 1092 0000 		sts c,__zero_reg__
 1486 093e C0E0      		ldi r28,lo8(0)
 1487 0940 D0E0      		ldi r29,hi8(0)
 1488               	.LM234:
 1489 0942 4DEA      		ldi r20,lo8(173)
 1490 0944 50E0      		ldi r21,hi8(173)
 1491               	.LM235:
 1492 0946 3DEA      		ldi r19,lo8(-83)
 1493 0948 00C0      		rjmp .L118
 1494               	.L123:
 1495               	.LM236:
 1496 094a 822F      		mov r24,r18
 1497 094c 90E0      		ldi r25,lo8(0)
 1498 094e 849F      		mul r24,r20
 1499 0950 F001      		movw r30,r0
 1500 0952 859F      		mul r24,r21
 1501 0954 F00D      		add r31,r0
 1502 0956 949F      		mul r25,r20
 1503 0958 F00D      		add r31,r0
 1504 095a 1124      		clr r1
 1505 095c E050      		subi r30,lo8(-(uip_conns))
 1506 095e F040      		sbci r31,hi8(-(uip_conns))
 1507 0960 818D      		ldd r24,Z+25
 1508 0962 8823      		tst r24
 1509 0964 01F4      		brne .L119
 1510               	.LM237:
 1511 0966 8DEA      		ldi r24,lo8(-83)
 1512 0968 289F      		mul r18,r24
 1513 096a E001      		movw r28,r0
 1514 096c 1124      		clr r1
 1515 096e C050      		subi r28,lo8(-(uip_conns))
 1516 0970 D040      		sbci r29,hi8(-(uip_conns))
 1517 0972 00C0      		rjmp .L120
 1518               	.L119:
 1519               	.LM238:
 1520 0974 8730      		cpi r24,lo8(7)
 1521 0976 01F4      		brne .L121
 1522               	.LM239:
 1523 0978 2097      		sbiw r28,0
 1524 097a 01F0      		breq .L122
 1525 097c 928D      		ldd r25,Z+26
 1526 097e 8A8D      		ldd r24,Y+26
 1527 0980 8917      		cp r24,r25
 1528 0982 00F4      		brsh .L121
 1529               	.L122:
 1530               	.LM240:
 1531 0984 239F      		mul r18,r19
 1532 0986 E001      		movw r28,r0
 1533 0988 1124      		clr r1
 1534 098a C050      		subi r28,lo8(-(uip_conns))
 1535 098c D040      		sbci r29,hi8(-(uip_conns))
 1536               	.L121:
 1537               	.LM241:
 1538 098e 2F5F      		subi r18,lo8(-(1))
 1539 0990 2093 0000 		sts c,r18
 1540               	.L118:
 1541 0994 2091 0000 		lds r18,c
 1542 0998 2230      		cpi r18,lo8(2)
 1543 099a 00F0      		brlo .L123
 1544               	.L120:
 1545               	.LM242:
 1546 099c 2097      		sbiw r28,0
 1547 099e 01F4      		brne .L124
 1548               	.LM243:
 1549 09a0 8091 0000 		lds r24,uip_stat+40
 1550 09a4 9091 0000 		lds r25,(uip_stat+40)+1
 1551 09a8 0196      		adiw r24,1
 1552 09aa 9093 0000 		sts (uip_stat+40)+1,r25
 1553 09ae 8093 0000 		sts uip_stat+40,r24
 1554               	.LM244:
 1555 09b2 80E0      		ldi r24,lo8(.LC7)
 1556 09b4 90E0      		ldi r25,hi8(.LC7)
 1557 09b6 00C0      		rjmp .L188
 1558               	.L124:
 1559               	.LM245:
 1560 09b8 D093 0000 		sts (uip_conn)+1,r29
 1561 09bc C093 0000 		sts uip_conn,r28
 1562               	.LM246:
 1563 09c0 83E0      		ldi r24,lo8(3)
 1564 09c2 8A8F      		std Y+26,r24
 1565 09c4 888F      		std Y+24,r24
 1566               	.LM247:
 1567 09c6 1E8A      		std Y+22,__zero_reg__
 1568               	.LM248:
 1569 09c8 84E0      		ldi r24,lo8(4)
 1570 09ca 8F8B      		std Y+23,r24
 1571               	.LM249:
 1572 09cc 1B8E      		std Y+27,__zero_reg__
 1573               	.LM250:
 1574 09ce 8091 0000 		lds r24,uip_buf+36
 1575 09d2 9091 0000 		lds r25,(uip_buf+36)+1
 1576 09d6 9D83      		std Y+5,r25
 1577 09d8 8C83      		std Y+4,r24
 1578               	.LM251:
 1579 09da 8091 0000 		lds r24,uip_buf+34
 1580 09de 9091 0000 		lds r25,(uip_buf+34)+1
 1581 09e2 9F83      		std Y+7,r25
 1582 09e4 8E83      		std Y+6,r24
 1583               	.LM252:
 1584 09e6 8091 0000 		lds r24,uip_buf+26
 1585 09ea 9091 0000 		lds r25,(uip_buf+26)+1
 1586 09ee 9983      		std Y+1,r25
 1587 09f0 8883      		st Y,r24
 1588 09f2 8091 0000 		lds r24,uip_buf+28
 1589 09f6 9091 0000 		lds r25,(uip_buf+28)+1
 1590 09fa 9B83      		std Y+3,r25
 1591 09fc 8A83      		std Y+2,r24
 1592               	.LM253:
 1593 09fe 81E0      		ldi r24,lo8(1)
 1594 0a00 898F      		std Y+25,r24
 1595               	.LM254:
 1596 0a02 8091 0000 		lds r24,iss
 1597 0a06 8C87      		std Y+12,r24
 1598               	.LM255:
 1599 0a08 8091 0000 		lds r24,iss+1
 1600 0a0c 8D87      		std Y+13,r24
 1601               	.LM256:
 1602 0a0e 8091 0000 		lds r24,iss+2
 1603 0a12 8E87      		std Y+14,r24
 1604               	.LM257:
 1605 0a14 8091 0000 		lds r24,iss+3
 1606 0a18 8F87      		std Y+15,r24
 1607               	.LM258:
 1608 0a1a 81E0      		ldi r24,lo8(1)
 1609 0a1c 90E0      		ldi r25,hi8(1)
 1610 0a1e 998B      		std Y+17,r25
 1611 0a20 888B      		std Y+16,r24
 1612               	.LM259:
 1613 0a22 8091 0000 		lds r24,uip_buf+41
 1614 0a26 8B87      		std Y+11,r24
 1615               	.LM260:
 1616 0a28 8091 0000 		lds r24,uip_buf+40
 1617 0a2c 8A87      		std Y+10,r24
 1618               	.LM261:
 1619 0a2e 8091 0000 		lds r24,uip_buf+39
 1620 0a32 8987      		std Y+9,r24
 1621               	.LM262:
 1622 0a34 8091 0000 		lds r24,uip_buf+38
 1623 0a38 8887      		std Y+8,r24
 1624               	.LM263:
 1625 0a3a 81E0      		ldi r24,lo8(1)
 1626 0a3c 90E0      		ldi r25,hi8(1)
 1627 0a3e 0E94 0000 		call uip_add_rcv_nxt
 1628               	.LM264:
 1629 0a42 8091 0000 		lds r24,uip_buf+46
 1630 0a46 90E0      		ldi r25,lo8(0)
 1631 0a48 807F      		andi r24,lo8(240)
 1632 0a4a 9070      		andi r25,hi8(240)
 1633 0a4c 8135      		cpi r24,81
 1634 0a4e 9105      		cpc r25,__zero_reg__
 1635 0a50 04F4      		brge .+2
 1636 0a52 00C0      		rjmp .L86
 1637               	.LM265:
 1638 0a54 1092 0000 		sts c,__zero_reg__
 1639 0a58 00C0      		rjmp .L180
 1640               	.L129:
 1641               	.LM266:
 1642 0a5a F901      		movw r30,r18
 1643 0a5c E050      		subi r30,lo8(-(uip_buf))
 1644 0a5e F040      		sbci r31,hi8(-(uip_buf))
 1645 0a60 86A9      		ldd r24,Z+54
 1646 0a62 8093 0000 		sts opt,r24
 1647               	.LM267:
 1648 0a66 8823      		tst r24
 1649 0a68 01F0      		breq .L86
 1650               	.LM268:
 1651 0a6a 8130      		cpi r24,lo8(1)
 1652 0a6c 01F4      		brne .L126
 1653               	.LM269:
 1654 0a6e 4F5F      		subi r20,lo8(-(1))
 1655 0a70 4093 0000 		sts c,r20
 1656 0a74 00C0      		rjmp .L180
 1657               	.L126:
 1658               	.LM270:
 1659 0a76 8230      		cpi r24,lo8(2)
 1660 0a78 01F4      		brne .L127
 1661 0a7a 87A9      		ldd r24,Z+55
 1662 0a7c 8430      		cpi r24,lo8(4)
 1663 0a7e 01F4      		brne .L127
 1664               	.LM271:
 1665 0a80 30AD      		ldd r19,Z+56
 1666 0a82 20E0      		ldi r18,lo8(0)
 1667 0a84 81AD      		ldd r24,Z+57
 1668 0a86 90E0      		ldi r25,lo8(0)
 1669 0a88 822B      		or r24,r18
 1670 0a8a 932B      		or r25,r19
 1671 0a8c 9093 0000 		sts (tmp16)+1,r25
 1672 0a90 8093 0000 		sts tmp16,r24
 1673               	.LM272:
 1674 0a94 F5E0      		ldi r31,hi8(1447)
 1675 0a96 873A      		cpi r24,lo8(1447)
 1676 0a98 9F07      		cpc r25,r31
 1677 0a9a 00F0      		brlo .L128
 1678 0a9c 86EA      		ldi r24,lo8(1446)
 1679 0a9e 95E0      		ldi r25,hi8(1446)
 1680               	.L128:
 1681 0aa0 9B8B      		std Y+19,r25
 1682 0aa2 8A8B      		std Y+18,r24
 1683 0aa4 9D8B      		std Y+21,r25
 1684 0aa6 8C8B      		std Y+20,r24
 1685 0aa8 00C0      		rjmp .L86
 1686               	.L127:
 1687               	.LM273:
 1688 0aaa 9091 0000 		lds r25,c
 1689 0aae E92F      		mov r30,r25
 1690 0ab0 F0E0      		ldi r31,lo8(0)
 1691 0ab2 E050      		subi r30,lo8(-(uip_buf))
 1692 0ab4 F040      		sbci r31,hi8(-(uip_buf))
 1693 0ab6 87A9      		ldd r24,Z+55
 1694 0ab8 8823      		tst r24
 1695 0aba 01F0      		breq .L86
 1696               	.LM274:
 1697 0abc 890F      		add r24,r25
 1698 0abe 8093 0000 		sts c,r24
 1699               	.L180:
 1700               	.LM275:
 1701 0ac2 4091 0000 		lds r20,c
 1702 0ac6 242F      		mov r18,r20
 1703 0ac8 30E0      		ldi r19,lo8(0)
 1704 0aca 8091 0000 		lds r24,uip_buf+46
 1705 0ace 8295      		swap r24
 1706 0ad0 8F70      		andi r24,lo8(15)
 1707 0ad2 90E0      		ldi r25,lo8(0)
 1708 0ad4 0597      		sbiw r24,5
 1709 0ad6 880F      		lsl r24
 1710 0ad8 991F      		rol r25
 1711 0ada 880F      		lsl r24
 1712 0adc 991F      		rol r25
 1713 0ade 2817      		cp r18,r24
 1714 0ae0 3907      		cpc r19,r25
 1715 0ae2 04F4      		brge .+2
 1716 0ae4 00C0      		rjmp .L129
 1717               	.L86:
 1718               	.LM276:
 1719 0ae6 80E1      		ldi r24,lo8(16)
 1720 0ae8 8093 0000 		sts uip_buf+47,r24
 1721               	.L91:
 1722               	.LM277:
 1723 0aec 8091 0000 		lds r24,uip_buf+47
 1724 0af0 8260      		ori r24,lo8(2)
 1725 0af2 8093 0000 		sts uip_buf+47,r24
 1726               	.LM278:
 1727 0af6 82E0      		ldi r24,lo8(2)
 1728 0af8 8093 0000 		sts uip_buf+54,r24
 1729               	.LM279:
 1730 0afc 84E0      		ldi r24,lo8(4)
 1731 0afe 8093 0000 		sts uip_buf+55,r24
 1732               	.LM280:
 1733 0b02 85E0      		ldi r24,lo8(5)
 1734 0b04 8093 0000 		sts uip_buf+56,r24
 1735               	.LM281:
 1736 0b08 86EA      		ldi r24,lo8(-90)
 1737 0b0a 8093 0000 		sts uip_buf+57,r24
 1738               	.LM282:
 1739 0b0e 8CE2      		ldi r24,lo8(44)
 1740 0b10 90E0      		ldi r25,hi8(44)
 1741 0b12 9093 0000 		sts (uip_len)+1,r25
 1742 0b16 8093 0000 		sts uip_len,r24
 1743               	.LM283:
 1744 0b1a 80E6      		ldi r24,lo8(96)
 1745 0b1c 00C0      		rjmp .L187
 1746               	.L110:
 1747               	.LM284:
 1748 0b1e D093 0000 		sts (uip_conn)+1,r29
 1749 0b22 C093 0000 		sts uip_conn,r28
 1750               	.LM285:
 1751 0b26 1092 0000 		sts uip_flags,__zero_reg__
 1752               	.LM286:
 1753 0b2a 8091 0000 		lds r24,uip_buf+47
 1754 0b2e 482F      		mov r20,r24
 1755 0b30 50E0      		ldi r21,lo8(0)
 1756 0b32 82FF      		sbrs r24,2
 1757 0b34 00C0      		rjmp .L131
 1758               	.LM287:
 1759 0b36 198E      		std Y+25,__zero_reg__
 1760               	.LM288:
 1761 0b38 80E0      		ldi r24,lo8(.LC8)
 1762 0b3a 90E0      		ldi r25,hi8(.LC8)
 1763 0b3c 0E94 0000 		call uip_log
 1764               	.LM289:
 1765 0b40 80E2      		ldi r24,lo8(32)
 1766 0b42 00C0      		rjmp .L189
 1767               	.L131:
 1768               	.LM290:
 1769 0b44 8091 0000 		lds r24,uip_buf+46
 1770 0b48 8295      		swap r24
 1771 0b4a 8F70      		andi r24,lo8(15)
 1772 0b4c 880F      		lsl r24
 1773 0b4e 880F      		lsl r24
 1774 0b50 8093 0000 		sts c,r24
 1775               	.LM291:
 1776 0b54 2091 0000 		lds r18,uip_len
 1777 0b58 3091 0000 		lds r19,(uip_len)+1
 1778 0b5c 2451      		subi r18,lo8(-(-20))
 1779 0b5e 3040      		sbci r19,hi8(-(-20))
 1780 0b60 281B      		sub r18,r24
 1781 0b62 3109      		sbc r19,__zero_reg__
 1782 0b64 3093 0000 		sts (uip_len)+1,r19
 1783 0b68 2093 0000 		sts uip_len,r18
 1784               	.LM292:
 1785 0b6c 898D      		ldd r24,Y+25
 1786 0b6e 8F70      		andi r24,lo8(15)
 1787 0b70 8230      		cpi r24,lo8(2)
 1788 0b72 01F4      		brne .L132
 1789 0b74 4F73      		andi r20,lo8(63)
 1790 0b76 5070      		andi r21,hi8(63)
 1791 0b78 4231      		cpi r20,18
 1792 0b7a 5105      		cpc r21,__zero_reg__
 1793 0b7c 01F0      		breq .L133
 1794               	.L132:
 1795               	.LM293:
 1796 0b7e 232B      		or r18,r19
 1797 0b80 01F4      		brne .L134
 1798 0b82 8091 0000 		lds r24,uip_buf+47
 1799 0b86 90E0      		ldi r25,lo8(0)
 1800 0b88 8370      		andi r24,lo8(3)
 1801 0b8a 9070      		andi r25,hi8(3)
 1802 0b8c 892B      		or r24,r25
 1803 0b8e 01F0      		breq .L133
 1804               	.L134:
 1805 0b90 9091 0000 		lds r25,uip_buf+38
 1806 0b94 8885      		ldd r24,Y+8
 1807 0b96 9817      		cp r25,r24
 1808 0b98 01F0      		breq .+2
 1809 0b9a 00C0      		rjmp .L135
 1810 0b9c 9091 0000 		lds r25,uip_buf+39
 1811 0ba0 8985      		ldd r24,Y+9
 1812 0ba2 9817      		cp r25,r24
 1813 0ba4 01F0      		breq .+2
 1814 0ba6 00C0      		rjmp .L135
 1815 0ba8 9091 0000 		lds r25,uip_buf+40
 1816 0bac 8A85      		ldd r24,Y+10
 1817 0bae 9817      		cp r25,r24
 1818 0bb0 01F0      		breq .+2
 1819 0bb2 00C0      		rjmp .L135
 1820 0bb4 9091 0000 		lds r25,uip_buf+41
 1821 0bb8 8B85      		ldd r24,Y+11
 1822 0bba 9817      		cp r25,r24
 1823 0bbc 01F0      		breq .+2
 1824 0bbe 00C0      		rjmp .L135
 1825               	.L133:
 1826               	.LM294:
 1827 0bc0 8091 0000 		lds r24,uip_buf+47
 1828 0bc4 84FF      		sbrs r24,4
 1829 0bc6 00C0      		rjmp .L136
 1830 0bc8 6889      		ldd r22,Y+16
 1831 0bca 7989      		ldd r23,Y+17
 1832 0bcc 6115      		cp r22,__zero_reg__
 1833 0bce 7105      		cpc r23,__zero_reg__
 1834 0bd0 01F4      		brne .+2
 1835 0bd2 00C0      		rjmp .L136
 1836               	.LM295:
 1837 0bd4 CE01      		movw r24,r28
 1838 0bd6 0C96      		adiw r24,12
 1839 0bd8 0E94 0000 		call uip_add32
 1840               	.LM296:
 1841 0bdc 2091 0000 		lds r18,uip_buf+42
 1842 0be0 8091 0000 		lds r24,uip_acc32
 1843 0be4 2817      		cp r18,r24
 1844 0be6 01F0      		breq .+2
 1845 0be8 00C0      		rjmp .L136
 1846 0bea 9091 0000 		lds r25,uip_buf+43
 1847 0bee 8091 0000 		lds r24,uip_acc32+1
 1848 0bf2 9817      		cp r25,r24
 1849 0bf4 01F4      		brne .L136
 1850 0bf6 9091 0000 		lds r25,uip_buf+44
 1851 0bfa 8091 0000 		lds r24,uip_acc32+2
 1852 0bfe 9817      		cp r25,r24
 1853 0c00 01F4      		brne .L136
 1854 0c02 9091 0000 		lds r25,uip_buf+45
 1855 0c06 8091 0000 		lds r24,uip_acc32+3
 1856 0c0a 9817      		cp r25,r24
 1857 0c0c 01F4      		brne .L136
 1858               	.LM297:
 1859 0c0e 2C87      		std Y+12,r18
 1860               	.LM298:
 1861 0c10 8091 0000 		lds r24,uip_acc32+1
 1862 0c14 8D87      		std Y+13,r24
 1863               	.LM299:
 1864 0c16 8091 0000 		lds r24,uip_acc32+2
 1865 0c1a 8E87      		std Y+14,r24
 1866               	.LM300:
 1867 0c1c 8091 0000 		lds r24,uip_acc32+3
 1868 0c20 8F87      		std Y+15,r24
 1869               	.LM301:
 1870 0c22 8B8D      		ldd r24,Y+27
 1871 0c24 8823      		tst r24
 1872 0c26 01F4      		brne .L137
 1873               	.LBB18:
 1874               	.LM302:
 1875 0c28 2E89      		ldd r18,Y+22
 1876 0c2a 988D      		ldd r25,Y+24
 1877 0c2c 8A8D      		ldd r24,Y+26
 1878 0c2e 981B      		sub r25,r24
 1879 0c30 822F      		mov r24,r18
 1880 0c32 8695      		lsr r24
 1881 0c34 8695      		lsr r24
 1882 0c36 8695      		lsr r24
 1883 0c38 981B      		sub r25,r24
 1884               	.LM303:
 1885 0c3a 392F      		mov r19,r25
 1886 0c3c 320F      		add r19,r18
 1887 0c3e 3E8B      		std Y+22,r19
 1888               	.LM304:
 1889 0c40 8F89      		ldd r24,Y+23
 1890               	.LM305:
 1891 0c42 282F      		mov r18,r24
 1892 0c44 2695      		lsr r18
 1893 0c46 2695      		lsr r18
 1894 0c48 821B      		sub r24,r18
 1895 0c4a 97FD      		sbrc r25,7
 1896 0c4c 9195      		neg r25
 1897 0c4e 890F      		add r24,r25
 1898 0c50 8F8B      		std Y+23,r24
 1899               	.LM306:
 1900 0c52 3695      		lsr r19
 1901 0c54 3695      		lsr r19
 1902 0c56 3695      		lsr r19
 1903 0c58 830F      		add r24,r19
 1904 0c5a 888F      		std Y+24,r24
 1905               	.L137:
 1906               	.LBE18:
 1907               	.LM307:
 1908 0c5c 81E0      		ldi r24,lo8(1)
 1909 0c5e 8093 0000 		sts uip_flags,r24
 1910               	.LM308:
 1911 0c62 888D      		ldd r24,Y+24
 1912 0c64 8A8F      		std Y+26,r24
 1913               	.LM309:
 1914 0c66 198A      		std Y+17,__zero_reg__
 1915 0c68 188A      		std Y+16,__zero_reg__
 1916               	.L136:
 1917               	.LM310:
 1918 0c6a 898D      		ldd r24,Y+25
 1919 0c6c 282F      		mov r18,r24
 1920 0c6e 30E0      		ldi r19,lo8(0)
 1921 0c70 C901      		movw r24,r18
 1922 0c72 8F70      		andi r24,lo8(15)
 1923 0c74 9070      		andi r25,hi8(15)
 1924 0c76 8430      		cpi r24,4
 1925 0c78 9105      		cpc r25,__zero_reg__
 1926 0c7a 01F4      		brne .+2
 1927 0c7c 00C0      		rjmp .L141
 1928 0c7e 8530      		cpi r24,5
 1929 0c80 9105      		cpc r25,__zero_reg__
 1930 0c82 04F4      		brge .L145
 1931 0c84 8230      		cpi r24,2
 1932 0c86 9105      		cpc r25,__zero_reg__
 1933 0c88 01F0      		breq .L139
 1934 0c8a 8330      		cpi r24,3
 1935 0c8c 9105      		cpc r25,__zero_reg__
 1936 0c8e 04F0      		brlt .+2
 1937 0c90 00C0      		rjmp .L140
 1938 0c92 0197      		sbiw r24,1
 1939 0c94 01F0      		breq .+2
 1940 0c96 00C0      		rjmp .L74
 1941 0c98 00C0      		rjmp .L196
 1942               	.L145:
 1943 0c9a 8630      		cpi r24,6
 1944 0c9c 9105      		cpc r25,__zero_reg__
 1945 0c9e 01F4      		brne .+2
 1946 0ca0 00C0      		rjmp .L143
 1947 0ca2 8630      		cpi r24,6
 1948 0ca4 9105      		cpc r25,__zero_reg__
 1949 0ca6 04F4      		brge .+2
 1950 0ca8 00C0      		rjmp .L142
 1951 0caa 8730      		cpi r24,7
 1952 0cac 9105      		cpc r25,__zero_reg__
 1953 0cae 01F4      		brne .+2
 1954 0cb0 00C0      		rjmp .L135
 1955 0cb2 0897      		sbiw r24,8
 1956 0cb4 01F0      		breq .+2
 1957 0cb6 00C0      		rjmp .L74
 1958 0cb8 00C0      		rjmp .L197
 1959               	.L196:
 1960               	.LM311:
 1961 0cba 8091 0000 		lds r24,uip_flags
 1962 0cbe 80FF      		sbrs r24,0
 1963 0cc0 00C0      		rjmp .L74
 1964               	.LM312:
 1965 0cc2 83E0      		ldi r24,lo8(3)
 1966 0cc4 898F      		std Y+25,r24
 1967               	.LM313:
 1968 0cc6 80E4      		ldi r24,lo8(64)
 1969 0cc8 8093 0000 		sts uip_flags,r24
 1970               	.LM314:
 1971 0ccc 198A      		std Y+17,__zero_reg__
 1972 0cce 188A      		std Y+16,__zero_reg__
 1973               	.LM315:
 1974 0cd0 2091 0000 		lds r18,uip_len
 1975 0cd4 3091 0000 		lds r19,(uip_len)+1
 1976 0cd8 2115      		cp r18,__zero_reg__
 1977 0cda 3105      		cpc r19,__zero_reg__
 1978 0cdc 01F4      		brne .+2
 1979 0cde 00C0      		rjmp .L193
 1980               	.LM316:
 1981 0ce0 82E4      		ldi r24,lo8(66)
 1982 0ce2 8093 0000 		sts uip_flags,r24
 1983               	.LM317:
 1984 0ce6 C901      		movw r24,r18
 1985 0ce8 0E94 0000 		call uip_add_rcv_nxt
 1986 0cec 00C0      		rjmp .L193
 1987               	.L139:
 1988               	.LM318:
 1989 0cee 8091 0000 		lds r24,uip_flags
 1990 0cf2 80FF      		sbrs r24,0
 1991 0cf4 00C0      		rjmp .L147
 1992 0cf6 8091 0000 		lds r24,uip_buf+47
 1993 0cfa 8F73      		andi r24,lo8(63)
 1994 0cfc 8231      		cpi r24,lo8(18)
 1995 0cfe 01F0      		breq .+2
 1996 0d00 00C0      		rjmp .L147
 1997               	.LM319:
 1998 0d02 8091 0000 		lds r24,uip_buf+46
 1999 0d06 90E0      		ldi r25,lo8(0)
 2000 0d08 807F      		andi r24,lo8(240)
 2001 0d0a 9070      		andi r25,hi8(240)
 2002 0d0c 8135      		cpi r24,81
 2003 0d0e 9105      		cpc r25,__zero_reg__
 2004 0d10 04F4      		brge .+2
 2005 0d12 00C0      		rjmp .L148
 2006               	.LM320:
 2007 0d14 1092 0000 		sts c,__zero_reg__
 2008 0d18 00C0      		rjmp .L181
 2009               	.L153:
 2010               	.LM321:
 2011 0d1a F901      		movw r30,r18
 2012 0d1c E050      		subi r30,lo8(-(uip_buf))
 2013 0d1e F040      		sbci r31,hi8(-(uip_buf))
 2014 0d20 86A9      		ldd r24,Z+54
 2015 0d22 8093 0000 		sts opt,r24
 2016               	.LM322:
 2017 0d26 8823      		tst r24
 2018 0d28 01F0      		breq .L148
 2019               	.LM323:
 2020 0d2a 8130      		cpi r24,lo8(1)
 2021 0d2c 01F4      		brne .L150
 2022               	.LM324:
 2023 0d2e 4F5F      		subi r20,lo8(-(1))
 2024 0d30 4093 0000 		sts c,r20
 2025 0d34 00C0      		rjmp .L181
 2026               	.L150:
 2027               	.LM325:
 2028 0d36 8230      		cpi r24,lo8(2)
 2029 0d38 01F4      		brne .L151
 2030 0d3a 87A9      		ldd r24,Z+55
 2031 0d3c 8430      		cpi r24,lo8(4)
 2032 0d3e 01F4      		brne .L151
 2033               	.LM326:
 2034 0d40 30AD      		ldd r19,Z+56
 2035 0d42 20E0      		ldi r18,lo8(0)
 2036 0d44 81AD      		ldd r24,Z+57
 2037 0d46 90E0      		ldi r25,lo8(0)
 2038 0d48 822B      		or r24,r18
 2039 0d4a 932B      		or r25,r19
 2040 0d4c 9093 0000 		sts (tmp16)+1,r25
 2041 0d50 8093 0000 		sts tmp16,r24
 2042               	.LM327:
 2043 0d54 25E0      		ldi r18,hi8(1447)
 2044 0d56 873A      		cpi r24,lo8(1447)
 2045 0d58 9207      		cpc r25,r18
 2046 0d5a 00F0      		brlo .L152
 2047 0d5c 86EA      		ldi r24,lo8(1446)
 2048 0d5e 95E0      		ldi r25,hi8(1446)
 2049               	.L152:
 2050 0d60 9B8B      		std Y+19,r25
 2051 0d62 8A8B      		std Y+18,r24
 2052 0d64 9D8B      		std Y+21,r25
 2053 0d66 8C8B      		std Y+20,r24
 2054 0d68 00C0      		rjmp .L148
 2055               	.L151:
 2056               	.LM328:
 2057 0d6a 9091 0000 		lds r25,c
 2058 0d6e E92F      		mov r30,r25
 2059 0d70 F0E0      		ldi r31,lo8(0)
 2060 0d72 E050      		subi r30,lo8(-(uip_buf))
 2061 0d74 F040      		sbci r31,hi8(-(uip_buf))
 2062 0d76 87A9      		ldd r24,Z+55
 2063 0d78 8823      		tst r24
 2064 0d7a 01F0      		breq .L148
 2065               	.LM329:
 2066 0d7c 890F      		add r24,r25
 2067 0d7e 8093 0000 		sts c,r24
 2068               	.L181:
 2069               	.LM330:
 2070 0d82 4091 0000 		lds r20,c
 2071 0d86 242F      		mov r18,r20
 2072 0d88 30E0      		ldi r19,lo8(0)
 2073 0d8a 8091 0000 		lds r24,uip_buf+46
 2074 0d8e 8295      		swap r24
 2075 0d90 8F70      		andi r24,lo8(15)
 2076 0d92 90E0      		ldi r25,lo8(0)
 2077 0d94 0597      		sbiw r24,5
 2078 0d96 880F      		lsl r24
 2079 0d98 991F      		rol r25
 2080 0d9a 880F      		lsl r24
 2081 0d9c 991F      		rol r25
 2082 0d9e 2817      		cp r18,r24
 2083 0da0 3907      		cpc r19,r25
 2084 0da2 04F4      		brge .+2
 2085 0da4 00C0      		rjmp .L153
 2086               	.L148:
 2087               	.LM331:
 2088 0da6 83E0      		ldi r24,lo8(3)
 2089 0da8 898F      		std Y+25,r24
 2090               	.LM332:
 2091 0daa 8091 0000 		lds r24,uip_buf+38
 2092 0dae 8887      		std Y+8,r24
 2093               	.LM333:
 2094 0db0 8091 0000 		lds r24,uip_buf+39
 2095 0db4 8987      		std Y+9,r24
 2096               	.LM334:
 2097 0db6 8091 0000 		lds r24,uip_buf+40
 2098 0dba 8A87      		std Y+10,r24
 2099               	.LM335:
 2100 0dbc 8091 0000 		lds r24,uip_buf+41
 2101 0dc0 8B87      		std Y+11,r24
 2102               	.LM336:
 2103 0dc2 81E0      		ldi r24,lo8(1)
 2104 0dc4 90E0      		ldi r25,hi8(1)
 2105 0dc6 0E94 0000 		call uip_add_rcv_nxt
 2106               	.LM337:
 2107 0dca 82E4      		ldi r24,lo8(66)
 2108 0dcc 8093 0000 		sts uip_flags,r24
 2109               	.LM338:
 2110 0dd0 198A      		std Y+17,__zero_reg__
 2111 0dd2 188A      		std Y+16,__zero_reg__
 2112               	.LM339:
 2113 0dd4 1092 0000 		sts (uip_len)+1,__zero_reg__
 2114 0dd8 1092 0000 		sts uip_len,__zero_reg__
 2115 0ddc 00C0      		rjmp .L193
 2116               	.L147:
 2117               	.LM340:
 2118 0dde 80E2      		ldi r24,lo8(32)
 2119 0de0 8093 0000 		sts uip_flags,r24
 2120               	.LM341:
 2121 0de4 0E94 0000 		call httpd_appcall
 2122               	.LM342:
 2123 0de8 E091 0000 		lds r30,uip_conn
 2124 0dec F091 0000 		lds r31,(uip_conn)+1
 2125 0df0 118E      		std Z+25,__zero_reg__
 2126 0df2 00C0      		rjmp .L112
 2127               	.L140:
 2128               	.LM343:
 2129 0df4 8091 0000 		lds r24,uip_buf+47
 2130 0df8 80FF      		sbrs r24,0
 2131 0dfa 00C0      		rjmp .L154
 2132 0dfc 24FD      		sbrc r18,4
 2133 0dfe 00C0      		rjmp .L154
 2134               	.LM344:
 2135 0e00 8889      		ldd r24,Y+16
 2136 0e02 9989      		ldd r25,Y+17
 2137 0e04 892B      		or r24,r25
 2138 0e06 01F0      		breq .+2
 2139 0e08 00C0      		rjmp .L74
 2140               	.LM345:
 2141 0e0a 8091 0000 		lds r24,uip_len
 2142 0e0e 9091 0000 		lds r25,(uip_len)+1
 2143 0e12 0196      		adiw r24,1
 2144 0e14 0E94 0000 		call uip_add_rcv_nxt
 2145               	.LM346:
 2146 0e18 2091 0000 		lds r18,uip_flags
 2147 0e1c 822F      		mov r24,r18
 2148 0e1e 8061      		ori r24,lo8(16)
 2149 0e20 8093 0000 		sts uip_flags,r24
 2150               	.LM347:
 2151 0e24 8091 0000 		lds r24,uip_len
 2152 0e28 9091 0000 		lds r25,(uip_len)+1
 2153 0e2c 892B      		or r24,r25
 2154 0e2e 01F0      		breq .L155
 2155               	.LM348:
 2156 0e30 2261      		ori r18,lo8(18)
 2157 0e32 2093 0000 		sts uip_flags,r18
 2158               	.L155:
 2159               	.LM349:
 2160 0e36 0E94 0000 		call httpd_appcall
 2161               	.LM350:
 2162 0e3a 81E0      		ldi r24,lo8(1)
 2163 0e3c 90E0      		ldi r25,hi8(1)
 2164 0e3e 998B      		std Y+17,r25
 2165 0e40 888B      		std Y+16,r24
 2166               	.LM351:
 2167 0e42 88E0      		ldi r24,lo8(8)
 2168               	.L194:
 2169 0e44 898F      		std Y+25,r24
 2170               	.LM352:
 2171 0e46 1B8E      		std Y+27,__zero_reg__
 2172               	.L89:
 2173               	.LM353:
 2174 0e48 81E1      		ldi r24,lo8(17)
 2175               	.L185:
 2176 0e4a 8093 0000 		sts uip_buf+47,r24
 2177 0e4e 00C0      		rjmp .L83
 2178               	.L154:
 2179               	.LM354:
 2180 0e50 85FF      		sbrs r24,5
 2181 0e52 00C0      		rjmp .L156
 2182               	.LM355:
 2183 0e54 6091 0000 		lds r22,uip_buf+52
 2184 0e58 362F      		mov r19,r22
 2185 0e5a 20E0      		ldi r18,lo8(0)
 2186 0e5c 4091 0000 		lds r20,uip_buf+53
 2187 0e60 50E0      		ldi r21,lo8(0)
 2188 0e62 242B      		or r18,r20
 2189 0e64 352B      		or r19,r21
 2190 0e66 8091 0000 		lds r24,uip_appdata
 2191 0e6a 9091 0000 		lds r25,(uip_appdata)+1
 2192 0e6e 820F      		add r24,r18
 2193 0e70 931F      		adc r25,r19
 2194 0e72 9093 0000 		sts (uip_appdata)+1,r25
 2195 0e76 8093 0000 		sts uip_appdata,r24
 2196               	.LM356:
 2197 0e7a 962F      		mov r25,r22
 2198 0e7c 80E0      		ldi r24,lo8(0)
 2199 0e7e 842B      		or r24,r20
 2200 0e80 952B      		or r25,r21
 2201 0e82 2091 0000 		lds r18,uip_len
 2202 0e86 3091 0000 		lds r19,(uip_len)+1
 2203 0e8a 281B      		sub r18,r24
 2204 0e8c 390B      		sbc r19,r25
 2205 0e8e 3093 0000 		sts (uip_len)+1,r19
 2206 0e92 2093 0000 		sts uip_len,r18
 2207               	.L156:
 2208               	.LM357:
 2209 0e96 2091 0000 		lds r18,uip_len
 2210 0e9a 3091 0000 		lds r19,(uip_len)+1
 2211 0e9e 2115      		cp r18,__zero_reg__
 2212 0ea0 3105      		cpc r19,__zero_reg__
 2213 0ea2 01F0      		breq .L157
 2214 0ea4 898D      		ldd r24,Y+25
 2215 0ea6 84FD      		sbrc r24,4
 2216 0ea8 00C0      		rjmp .L157
 2217               	.LM358:
 2218 0eaa 8091 0000 		lds r24,uip_flags
 2219 0eae 8260      		ori r24,lo8(2)
 2220 0eb0 8093 0000 		sts uip_flags,r24
 2221               	.LM359:
 2222 0eb4 C901      		movw r24,r18
 2223 0eb6 0E94 0000 		call uip_add_rcv_nxt
 2224               	.L157:
 2225               	.LM360:
 2226 0eba 9091 0000 		lds r25,uip_buf+48
 2227 0ebe 80E0      		ldi r24,lo8(0)
 2228 0ec0 2091 0000 		lds r18,uip_buf+49
 2229 0ec4 820F      		add r24,r18
 2230 0ec6 911D      		adc r25,__zero_reg__
 2231 0ec8 9093 0000 		sts (tmp16)+1,r25
 2232 0ecc 8093 0000 		sts tmp16,r24
 2233               	.LM361:
 2234 0ed0 2C89      		ldd r18,Y+20
 2235 0ed2 3D89      		ldd r19,Y+21
 2236 0ed4 2817      		cp r18,r24
 2237 0ed6 3907      		cpc r19,r25
 2238 0ed8 00F0      		brlo .L158
 2239 0eda 892B      		or r24,r25
 2240 0edc 01F4      		brne .L159
 2241               	.L158:
 2242               	.LM362:
 2243 0ede 3093 0000 		sts (tmp16)+1,r19
 2244 0ee2 2093 0000 		sts tmp16,r18
 2245               	.L159:
 2246               	.LM363:
 2247 0ee6 8091 0000 		lds r24,tmp16
 2248 0eea 9091 0000 		lds r25,(tmp16)+1
 2249 0eee 9B8B      		std Y+19,r25
 2250 0ef0 8A8B      		std Y+18,r24
 2251               	.LM364:
 2252 0ef2 8091 0000 		lds r24,uip_flags
 2253 0ef6 90E0      		ldi r25,lo8(0)
 2254 0ef8 8370      		andi r24,lo8(3)
 2255 0efa 9070      		andi r25,hi8(3)
 2256 0efc 892B      		or r24,r25
 2257 0efe 01F4      		brne .+2
 2258 0f00 00C0      		rjmp .L74
 2259               	.L193:
 2260               	.LM365:
 2261 0f02 1092 0000 		sts (uip_slen)+1,__zero_reg__
 2262 0f06 1092 0000 		sts uip_slen,__zero_reg__
 2263               	.L183:
 2264               	.LM366:
 2265 0f0a 0E94 0000 		call httpd_appcall
 2266               	.L75:
 2267               	.LM367:
 2268 0f0e 8091 0000 		lds r24,uip_flags
 2269 0f12 282F      		mov r18,r24
 2270 0f14 85FF      		sbrs r24,5
 2271 0f16 00C0      		rjmp .L160
 2272               	.LM368:
 2273 0f18 1092 0000 		sts (uip_slen)+1,__zero_reg__
 2274 0f1c 1092 0000 		sts uip_slen,__zero_reg__
 2275               	.LM369:
 2276 0f20 198E      		std Y+25,__zero_reg__
 2277               	.L191:
 2278               	.LM370:
 2279 0f22 84E1      		ldi r24,lo8(20)
 2280 0f24 00C0      		rjmp .L185
 2281               	.L160:
 2282               	.LM371:
 2283 0f26 84FF      		sbrs r24,4
 2284 0f28 00C0      		rjmp .L161
 2285               	.LM372:
 2286 0f2a 1092 0000 		sts (uip_slen)+1,__zero_reg__
 2287 0f2e 1092 0000 		sts uip_slen,__zero_reg__
 2288               	.LM373:
 2289 0f32 81E0      		ldi r24,lo8(1)
 2290 0f34 90E0      		ldi r25,hi8(1)
 2291 0f36 998B      		std Y+17,r25
 2292 0f38 888B      		std Y+16,r24
 2293               	.LM374:
 2294 0f3a 84E0      		ldi r24,lo8(4)
 2295 0f3c 00C0      		rjmp .L194
 2296               	.L161:
 2297               	.LM375:
 2298 0f3e 8091 0000 		lds r24,uip_slen
 2299 0f42 9091 0000 		lds r25,(uip_slen)+1
 2300 0f46 892B      		or r24,r25
 2301 0f48 01F0      		breq .L162
 2302               	.LM376:
 2303 0f4a 20FF      		sbrs r18,0
 2304 0f4c 00C0      		rjmp .L163
 2305               	.LM377:
 2306 0f4e 198A      		std Y+17,__zero_reg__
 2307 0f50 188A      		std Y+16,__zero_reg__
 2308               	.L163:
 2309               	.LM378:
 2310 0f52 8889      		ldd r24,Y+16
 2311 0f54 9989      		ldd r25,Y+17
 2312 0f56 0097      		sbiw r24,0
 2313 0f58 01F4      		brne .L164
 2314               	.LM379:
 2315 0f5a 2A89      		ldd r18,Y+18
 2316 0f5c 3B89      		ldd r19,Y+19
 2317 0f5e 8091 0000 		lds r24,uip_slen
 2318 0f62 9091 0000 		lds r25,(uip_slen)+1
 2319 0f66 2817      		cp r18,r24
 2320 0f68 3907      		cpc r19,r25
 2321 0f6a 00F4      		brsh .L165
 2322               	.LM380:
 2323 0f6c 3093 0000 		sts (uip_slen)+1,r19
 2324 0f70 2093 0000 		sts uip_slen,r18
 2325               	.L165:
 2326               	.LM381:
 2327 0f74 8091 0000 		lds r24,uip_slen
 2328 0f78 9091 0000 		lds r25,(uip_slen)+1
 2329 0f7c 998B      		std Y+17,r25
 2330 0f7e 888B      		std Y+16,r24
 2331 0f80 00C0      		rjmp .L162
 2332               	.L164:
 2333               	.LM382:
 2334 0f82 9093 0000 		sts (uip_slen)+1,r25
 2335 0f86 8093 0000 		sts uip_slen,r24
 2336               	.L162:
 2337               	.LM383:
 2338 0f8a 1B8E      		std Y+27,__zero_reg__
 2339               	.L92:
 2340               	.LM384:
 2341 0f8c 8091 0000 		lds r24,uip_sappdata
 2342 0f90 9091 0000 		lds r25,(uip_sappdata)+1
 2343 0f94 9093 0000 		sts (uip_appdata)+1,r25
 2344 0f98 8093 0000 		sts uip_appdata,r24
 2345               	.LM385:
 2346 0f9c 8091 0000 		lds r24,uip_slen
 2347 0fa0 9091 0000 		lds r25,(uip_slen)+1
 2348 0fa4 892B      		or r24,r25
 2349 0fa6 01F0      		breq .L166
 2350 0fa8 8889      		ldd r24,Y+16
 2351 0faa 9989      		ldd r25,Y+17
 2352 0fac 0097      		sbiw r24,0
 2353 0fae 01F0      		breq .L166
 2354               	.LM386:
 2355 0fb0 8896      		adiw r24,40
 2356 0fb2 9093 0000 		sts (uip_len)+1,r25
 2357 0fb6 8093 0000 		sts uip_len,r24
 2358               	.LM387:
 2359 0fba 88E1      		ldi r24,lo8(24)
 2360 0fbc 00C0      		rjmp .L186
 2361               	.L166:
 2362               	.LM388:
 2363 0fbe 8091 0000 		lds r24,uip_flags
 2364 0fc2 81FF      		sbrs r24,1
 2365 0fc4 00C0      		rjmp .L74
 2366               	.LM389:
 2367 0fc6 88E2      		ldi r24,lo8(40)
 2368 0fc8 90E0      		ldi r25,hi8(40)
 2369 0fca 9093 0000 		sts (uip_len)+1,r25
 2370 0fce 8093 0000 		sts uip_len,r24
 2371               	.LM390:
 2372 0fd2 80E1      		ldi r24,lo8(16)
 2373               	.L186:
 2374 0fd4 8093 0000 		sts uip_buf+47,r24
 2375 0fd8 00C0      		rjmp .L167
 2376               	.L197:
 2377               	.LM391:
 2378 0fda 8091 0000 		lds r24,uip_flags
 2379 0fde 80FF      		sbrs r24,0
 2380 0fe0 00C0      		rjmp .L74
 2381               	.LM392:
 2382 0fe2 198E      		std Y+25,__zero_reg__
 2383               	.LM393:
 2384 0fe4 80E1      		ldi r24,lo8(16)
 2385               	.L189:
 2386 0fe6 8093 0000 		sts uip_flags,r24
 2387               	.LM394:
 2388 0fea 0E94 0000 		call httpd_appcall
 2389 0fee 00C0      		rjmp .L74
 2390               	.L141:
 2391               	.LM395:
 2392 0ff0 8091 0000 		lds r24,uip_len
 2393 0ff4 9091 0000 		lds r25,(uip_len)+1
 2394 0ff8 0097      		sbiw r24,0
 2395 0ffa 01F0      		breq .L168
 2396               	.LM396:
 2397 0ffc 0E94 0000 		call uip_add_rcv_nxt
 2398               	.L168:
 2399               	.LM397:
 2400 1000 8091 0000 		lds r24,uip_buf+47
 2401 1004 9091 0000 		lds r25,uip_flags
 2402 1008 80FF      		sbrs r24,0
 2403 100a 00C0      		rjmp .L169
 2404               	.LM398:
 2405 100c 90FF      		sbrs r25,0
 2406 100e 00C0      		rjmp .L170
 2407               	.LM399:
 2408 1010 87E0      		ldi r24,lo8(7)
 2409 1012 898F      		std Y+25,r24
 2410               	.LM400:
 2411 1014 1A8E      		std Y+26,__zero_reg__
 2412               	.LM401:
 2413 1016 198A      		std Y+17,__zero_reg__
 2414 1018 188A      		std Y+16,__zero_reg__
 2415 101a 00C0      		rjmp .L184
 2416               	.L170:
 2417               	.LM402:
 2418 101c 86E0      		ldi r24,lo8(6)
 2419 101e 898F      		std Y+25,r24
 2420 1020 00C0      		rjmp .L184
 2421               	.L169:
 2422               	.LM403:
 2423 1022 90FF      		sbrs r25,0
 2424 1024 00C0      		rjmp .L174
 2425               	.LM404:
 2426 1026 85E0      		ldi r24,lo8(5)
 2427 1028 898F      		std Y+25,r24
 2428               	.LM405:
 2429 102a 198A      		std Y+17,__zero_reg__
 2430 102c 188A      		std Y+16,__zero_reg__
 2431 102e 00C0      		rjmp .L74
 2432               	.L142:
 2433               	.LM406:
 2434 1030 8091 0000 		lds r24,uip_len
 2435 1034 9091 0000 		lds r25,(uip_len)+1
 2436 1038 0097      		sbiw r24,0
 2437 103a 01F0      		breq .L173
 2438               	.LM407:
 2439 103c 0E94 0000 		call uip_add_rcv_nxt
 2440               	.L173:
 2441               	.LM408:
 2442 1040 8091 0000 		lds r24,uip_buf+47
 2443 1044 80FF      		sbrs r24,0
 2444 1046 00C0      		rjmp .L174
 2445               	.LM409:
 2446 1048 87E0      		ldi r24,lo8(7)
 2447 104a 898F      		std Y+25,r24
 2448               	.LM410:
 2449 104c 1A8E      		std Y+26,__zero_reg__
 2450               	.L184:
 2451               	.LM411:
 2452 104e 81E0      		ldi r24,lo8(1)
 2453 1050 90E0      		ldi r25,hi8(1)
 2454 1052 0E94 0000 		call uip_add_rcv_nxt
 2455               	.LM412:
 2456 1056 80E1      		ldi r24,lo8(16)
 2457 1058 8093 0000 		sts uip_flags,r24
 2458               	.LM413:
 2459 105c 0E94 0000 		call httpd_appcall
 2460 1060 00C0      		rjmp .L135
 2461               	.L174:
 2462               	.LM414:
 2463 1062 8091 0000 		lds r24,uip_len
 2464 1066 9091 0000 		lds r25,(uip_len)+1
 2465 106a 892B      		or r24,r25
 2466 106c 01F4      		brne .L135
 2467 106e 00C0      		rjmp .L74
 2468               	.L143:
 2469               	.LM415:
 2470 1070 8091 0000 		lds r24,uip_flags
 2471 1074 80FF      		sbrs r24,0
 2472 1076 00C0      		rjmp .L74
 2473               	.LM416:
 2474 1078 87E0      		ldi r24,lo8(7)
 2475 107a 898F      		std Y+25,r24
 2476               	.LM417:
 2477 107c 1A8E      		std Y+26,__zero_reg__
 2478 107e 00C0      		rjmp .L74
 2479               	.L135:
 2480               	.LM418:
 2481 1080 80E1      		ldi r24,lo8(16)
 2482 1082 F801      		movw r30,r16
 2483 1084 81A3      		std Z+33,r24
 2484               	.L83:
 2485               	.LM419:
 2486 1086 88E2      		ldi r24,lo8(40)
 2487 1088 90E0      		ldi r25,hi8(40)
 2488 108a 9093 0000 		sts (uip_len)+1,r25
 2489 108e 8093 0000 		sts uip_len,r24
 2490               	.L167:
 2491               	.LM420:
 2492 1092 80E5      		ldi r24,lo8(80)
 2493               	.L187:
 2494 1094 8093 0000 		sts uip_buf+46,r24
 2495               	.L130:
 2496               	.LM421:
 2497 1098 8885      		ldd r24,Y+8
 2498 109a 8093 0000 		sts uip_buf+42,r24
 2499               	.LM422:
 2500 109e 8985      		ldd r24,Y+9
 2501 10a0 8093 0000 		sts uip_buf+43,r24
 2502               	.LM423:
 2503 10a4 8A85      		ldd r24,Y+10
 2504 10a6 8093 0000 		sts uip_buf+44,r24
 2505               	.LM424:
 2506 10aa 8B85      		ldd r24,Y+11
 2507 10ac 8093 0000 		sts uip_buf+45,r24
 2508               	.LM425:
 2509 10b0 8C85      		ldd r24,Y+12
 2510 10b2 8093 0000 		sts uip_buf+38,r24
 2511               	.LM426:
 2512 10b6 8D85      		ldd r24,Y+13
 2513 10b8 8093 0000 		sts uip_buf+39,r24
 2514               	.LM427:
 2515 10bc 8E85      		ldd r24,Y+14
 2516 10be 8093 0000 		sts uip_buf+40,r24
 2517               	.LM428:
 2518 10c2 8F85      		ldd r24,Y+15
 2519 10c4 8093 0000 		sts uip_buf+41,r24
 2520               	.LM429:
 2521 10c8 86E0      		ldi r24,lo8(6)
 2522 10ca 8093 0000 		sts uip_buf+23,r24
 2523               	.LM430:
 2524 10ce 8C81      		ldd r24,Y+4
 2525 10d0 9D81      		ldd r25,Y+5
 2526 10d2 9093 0000 		sts (uip_buf+34)+1,r25
 2527 10d6 8093 0000 		sts uip_buf+34,r24
 2528               	.LM431:
 2529 10da 8E81      		ldd r24,Y+6
 2530 10dc 9F81      		ldd r25,Y+7
 2531 10de 9093 0000 		sts (uip_buf+36)+1,r25
 2532 10e2 8093 0000 		sts uip_buf+36,r24
 2533               	.LM432:
 2534 10e6 8091 0000 		lds r24,uip_hostaddr
 2535 10ea 9091 0000 		lds r25,(uip_hostaddr)+1
 2536 10ee 9093 0000 		sts (uip_buf+26)+1,r25
 2537 10f2 8093 0000 		sts uip_buf+26,r24
 2538 10f6 8091 0000 		lds r24,uip_hostaddr+2
 2539 10fa 9091 0000 		lds r25,(uip_hostaddr+2)+1
 2540 10fe 9093 0000 		sts (uip_buf+28)+1,r25
 2541 1102 8093 0000 		sts uip_buf+28,r24
 2542               	.LM433:
 2543 1106 8881      		ld r24,Y
 2544 1108 9981      		ldd r25,Y+1
 2545 110a 9093 0000 		sts (uip_buf+30)+1,r25
 2546 110e 8093 0000 		sts uip_buf+30,r24
 2547 1112 8A81      		ldd r24,Y+2
 2548 1114 9B81      		ldd r25,Y+3
 2549 1116 9093 0000 		sts (uip_buf+32)+1,r25
 2550 111a 8093 0000 		sts uip_buf+32,r24
 2551               	.LM434:
 2552 111e 898D      		ldd r24,Y+25
 2553 1120 84FF      		sbrs r24,4
 2554 1122 00C0      		rjmp .L175
 2555               	.LM435:
 2556 1124 1092 0000 		sts uip_buf+49,__zero_reg__
 2557 1128 1092 0000 		sts uip_buf+48,__zero_reg__
 2558 112c 00C0      		rjmp .L117
 2559               	.L175:
 2560               	.LM436:
 2561 112e 85E0      		ldi r24,lo8(5)
 2562 1130 8093 0000 		sts uip_buf+48,r24
 2563               	.LM437:
 2564 1134 86EA      		ldi r24,lo8(-90)
 2565 1136 8093 0000 		sts uip_buf+49,r24
 2566               	.L117:
 2567               	.LM438:
 2568 113a 80E4      		ldi r24,lo8(64)
 2569 113c 8093 0000 		sts uip_buf+22,r24
 2570               	.LM439:
 2571 1140 8091 0000 		lds r24,uip_len+1
 2572 1144 8093 0000 		sts uip_buf+16,r24
 2573               	.LM440:
 2574 1148 8091 0000 		lds r24,uip_len
 2575 114c 8093 0000 		sts uip_buf+17,r24
 2576               	.LM441:
 2577 1150 1092 0000 		sts uip_buf+53,__zero_reg__
 2578 1154 1092 0000 		sts uip_buf+52,__zero_reg__
 2579               	.LM442:
 2580 1158 1092 0000 		sts (uip_buf+50)+1,__zero_reg__
 2581 115c 1092 0000 		sts uip_buf+50,__zero_reg__
 2582               	.LM443:
 2583 1160 0E94 0000 		call uip_tcpchksum
 2584 1164 8095      		com r24
 2585 1166 9095      		com r25
 2586 1168 9093 0000 		sts (uip_buf+50)+1,r25
 2587 116c 8093 0000 		sts uip_buf+50,r24
 2588               	.LM444:
 2589 1170 85E4      		ldi r24,lo8(69)
 2590 1172 8093 0000 		sts uip_buf+14,r24
 2591               	.LM445:
 2592 1176 1092 0000 		sts uip_buf+15,__zero_reg__
 2593               	.LM446:
 2594 117a 1092 0000 		sts uip_buf+21,__zero_reg__
 2595 117e 1092 0000 		sts uip_buf+20,__zero_reg__
 2596               	.LM447:
 2597 1182 8091 0000 		lds r24,ipid
 2598 1186 9091 0000 		lds r25,(ipid)+1
 2599 118a 0196      		adiw r24,1
 2600 118c 9093 0000 		sts (ipid)+1,r25
 2601 1190 8093 0000 		sts ipid,r24
 2602               	.LM448:
 2603 1194 9093 0000 		sts uip_buf+18,r25
 2604               	.LM449:
 2605 1198 8093 0000 		sts uip_buf+19,r24
 2606               	.LM450:
 2607 119c 1092 0000 		sts (uip_buf+24)+1,__zero_reg__
 2608 11a0 1092 0000 		sts uip_buf+24,__zero_reg__
 2609               	.LM451:
 2610 11a4 0E94 0000 		call uip_ipchksum
 2611 11a8 8095      		com r24
 2612 11aa 9095      		com r25
 2613 11ac 9093 0000 		sts (uip_buf+24)+1,r25
 2614 11b0 8093 0000 		sts uip_buf+24,r24
 2615               	.LM452:
 2616 11b4 8091 0000 		lds r24,uip_stat+30
 2617 11b8 9091 0000 		lds r25,(uip_stat+30)+1
 2618 11bc 0196      		adiw r24,1
 2619 11be 9093 0000 		sts (uip_stat+30)+1,r25
 2620 11c2 8093 0000 		sts uip_stat+30,r24
 2621               	.L107:
 2622               	.LM453:
 2623 11c6 8091 0000 		lds r24,uip_stat+4
 2624 11ca 9091 0000 		lds r25,(uip_stat+4)+1
 2625 11ce 0196      		adiw r24,1
 2626 11d0 9093 0000 		sts (uip_stat+4)+1,r25
 2627 11d4 8093 0000 		sts uip_stat+4,r24
 2628 11d8 00C0      		rjmp .L190
 2629               	.L74:
 2630               	.LM454:
 2631 11da 1092 0000 		sts (uip_len)+1,__zero_reg__
 2632 11de 1092 0000 		sts uip_len,__zero_reg__
 2633               	.L190:
 2634               	.LM455:
 2635 11e2 1092 0000 		sts uip_flags,__zero_reg__
 2636               	/* epilogue start */
 2637               	.LM456:
 2638 11e6 DF91      		pop r29
 2639 11e8 CF91      		pop r28
 2640               	.LVL72:
 2641 11ea 1F91      		pop r17
 2642 11ec 0F91      		pop r16
 2643 11ee 0895      		ret
 2644               	.LFE16:
 2646               	.global	uip_ethaddr
 2647               	.global	uip_ethaddr
 2648               		.section .bss
 2651               	uip_ethaddr:
 2652 0000 0000 0000 		.skip 6,0
 2652      0000 
 2653               		.data
 2656               	all_zeroes_addr:
 2657 0106 0000 0000 		.skip 4,0
 2658               		.lcomm ipid,2
 2659               		.lcomm iss,4
 2660               		.lcomm lastport,2
 2661               		.lcomm c,1
 2662               		.lcomm opt,1
 2663               		.lcomm tmp16,2
 2664               		.comm uip_buf,1502,1
 2665               		.comm uip_appdata,2,1
 2666               		.comm uip_len,2,1
 2667               		.comm uip_conn,2,1
 2668               		.comm uip_conns,346,1
 2669               		.comm uip_acc32,4,1
 2670               		.comm uip_stat,44,1
 2671               		.comm uip_flags,1,1
 2672               		.comm uip_hostaddr,4,1
 2673               		.comm uip_netmask,4,1
 2674               		.comm uip_draddr,4,1
 2675               		.comm uip_sappdata,2,1
 2676               		.comm uip_slen,2,1
 2677               		.comm uip_listenports,4,1
 2830               	.Letext0:
DEFINED SYMBOLS
                            *ABS*:0000000000000000 uip.c
     /tmp/ccQg7WYz.s:2      *ABS*:000000000000003f __SREG__
     /tmp/ccQg7WYz.s:3      *ABS*:000000000000003e __SP_H__
     /tmp/ccQg7WYz.s:4      *ABS*:000000000000003d __SP_L__
     /tmp/ccQg7WYz.s:5      *ABS*:0000000000000034 __CCP__
     /tmp/ccQg7WYz.s:6      *ABS*:0000000000000000 __tmp_reg__
     /tmp/ccQg7WYz.s:7      *ABS*:0000000000000001 __zero_reg__
     /tmp/ccQg7WYz.s:18     .text:0000000000000000 uip_setipid
                             .bss:0000000000000006 ipid
     /tmp/ccQg7WYz.s:33     .text:000000000000000a uip_add32
                            *COM*:0000000000000004 uip_acc32
     /tmp/ccQg7WYz.s:106    .text:000000000000007a chksum
     /tmp/ccQg7WYz.s:183    .text:00000000000000c6 uip_chksum
     /tmp/ccQg7WYz.s:209    .text:00000000000000dc uip_ipchksum
                            *COM*:00000000000005de uip_buf
     /tmp/ccQg7WYz.s:247    .text:00000000000000fe upper_layer_chksum
     /tmp/ccQg7WYz.s:312    .text:000000000000014a uip_tcpchksum
     /tmp/ccQg7WYz.s:327    .text:0000000000000152 uip_udpchksum
     /tmp/ccQg7WYz.s:342    .text:000000000000015a uip_init
                            *COM*:0000000000000004 uip_listenports
                            *COM*:000000000000015a uip_conns
     /tmp/ccQg7WYz.s:2660   .bss:000000000000000e c
     /tmp/ccQg7WYz.s:2659   .bss:000000000000000c lastport
     /tmp/ccQg7WYz.s:401    .text:00000000000001ac uip_connect
     /tmp/ccQg7WYz.s:2658   .bss:0000000000000008 iss
     /tmp/ccQg7WYz.s:582    .text:00000000000002aa uip_unlisten
     /tmp/ccQg7WYz.s:628    .text:00000000000002e4 uip_listen
     /tmp/ccQg7WYz.s:672    .text:000000000000031c uip_add_rcv_nxt
                            *COM*:0000000000000002 uip_conn
     /tmp/ccQg7WYz.s:707    .text:000000000000034e htons
     /tmp/ccQg7WYz.s:725    .text:0000000000000356 uip_send
                            *COM*:0000000000000002 uip_slen
                            *COM*:0000000000000002 uip_sappdata
     /tmp/ccQg7WYz.s:764    .text:0000000000000382 uip_send_P
     /tmp/ccQg7WYz.s:816    .text:00000000000003a6 uip_process
                            *COM*:0000000000000002 uip_appdata
                            *COM*:0000000000000002 uip_len
                            *COM*:0000000000000001 uip_flags
                            *COM*:000000000000002c uip_stat
                            *COM*:0000000000000004 uip_hostaddr
     /tmp/ccQg7WYz.s:2656   .data:0000000000000106 all_zeroes_addr
     /tmp/ccQg7WYz.s:2662   .bss:0000000000000010 tmp16
     /tmp/ccQg7WYz.s:2661   .bss:000000000000000f opt
     /tmp/ccQg7WYz.s:2651   .bss:0000000000000000 uip_ethaddr
                            *COM*:0000000000000004 uip_netmask
                            *COM*:0000000000000004 uip_draddr

UNDEFINED SYMBOLS
memcpy
memcpy_P
httpd_appcall
uip_log
__do_copy_data
__do_clear_bss
